---
triple:          'x86_64-apple-darwin'
binary-path:     '/Users/karinmetzgar/Documents/School/USC/ASTE 546 Computational Plasma Physics/ASTE546 Git Repo/WK13 HW/vlasov'
relocations:
  - { offsetInCU: 0x52, offset: 0x52, size: 0x8, addend: 0x0, symName: __vecsAllocated, symObjAddr: 0x7B868, symBinAddr: 0x100014000, symSize: 0x0 }
  - { offsetInCU: 0x1A77, offset: 0x1A77, size: 0x8, addend: 0x0, symName: __ZNSt3__1L19piecewise_constructE, symObjAddr: 0xB8F5, symBinAddr: 0x10000F7D0, symSize: 0x0 }
  - { offsetInCU: 0x4B95, offset: 0x4B95, size: 0x8, addend: 0x0, symName: __ZNSt3__124__put_character_sequenceB7v160006IcNS_11char_traitsIcEEEERNS_13basic_ostreamIT_T0_EES7_PKS4_m, symObjAddr: 0x39A0, symBinAddr: 0x100007B10, symSize: 0x1F0 }
  - { offsetInCU: 0xB787, offset: 0xB787, size: 0x8, addend: 0x0, symName: __ZNSt3__17advanceB7v160006INS_21__tree_const_iteratorINS_12__value_typeINS_12basic_stringIcNS_11char_traitsIcEENS_9allocatorIcEEEEPPdEEPNS_11__tree_nodeISB_PvEElEEllvEEvRT_T0_, symObjAddr: 0xA1A0, symBinAddr: 0x10000E310, symSize: 0x50 }
  - { offsetInCU: 0xB818, offset: 0xB818, size: 0x8, addend: 0x0, symName: __ZNSt3__17advanceB7v160006INS_21__tree_const_iteratorINS_12__value_typeINS_12basic_stringIcNS_11char_traitsIcEENS_9allocatorIcEEEEPdEEPNS_11__tree_nodeISA_PvEElEEllvEEvRT_T0_, symObjAddr: 0xB060, symBinAddr: 0x10000F1D0, symSize: 0x50 }
  - { offsetInCU: 0xCEAA, offset: 0xCEAA, size: 0x8, addend: 0x0, symName: __ZNSt3__1lsB7v160006INS_11char_traitsIcEEEERNS_13basic_ostreamIcT_EES6_PKc, symObjAddr: 0xE00, symBinAddr: 0x100004F70, symSize: 0x40 }
  - { offsetInCU: 0xCEF0, offset: 0xCEF0, size: 0x8, addend: 0x0, symName: __ZNSt3__1lsB7v160006INS_11char_traitsIcEEEERNS_13basic_ostreamIcT_EES6_RKNS_8__iom_t4IcEE, symObjAddr: 0xE40, symBinAddr: 0x100004FB0, symSize: 0x40 }
  - { offsetInCU: 0xCF33, offset: 0xCF33, size: 0x8, addend: 0x0, symName: __ZNSt3__1lsB7v160006IcNS_11char_traitsIcEEEERNS_13basic_ostreamIT_T0_EES7_RKNS_8__iom_t6E, symObjAddr: 0xE80, symBinAddr: 0x100004FF0, symSize: 0x40 }
  - { offsetInCU: 0xCF82, offset: 0xCF82, size: 0x8, addend: 0x0, symName: __ZNSt3__14setwB7v160006Ei, symObjAddr: 0xEC0, symBinAddr: 0x100005030, symSize: 0x20 }
  - { offsetInCU: 0xCFB0, offset: 0xCFB0, size: 0x8, addend: 0x0, symName: __ZNSt3__17setfillB7v160006IcEENS_8__iom_t4IT_EES2_, symObjAddr: 0xEE0, symBinAddr: 0x100005050, symSize: 0x30 }
  - { offsetInCU: 0xD7F8, offset: 0xD7F8, size: 0x8, addend: 0x0, symName: __ZNSt3__1lsB7v160006IcNS_11char_traitsIcEEEERNS_13basic_ostreamIT_T0_EES7_RKNS_8__iom_t5E, symObjAddr: 0x10A0, symBinAddr: 0x100005210, symSize: 0x40 }
  - { offsetInCU: 0xD844, offset: 0xD844, size: 0x8, addend: 0x0, symName: __ZNSt3__112setprecisionB7v160006Ei, symObjAddr: 0x10E0, symBinAddr: 0x100005250, symSize: 0x20 }
  - { offsetInCU: 0xD870, offset: 0xD870, size: 0x8, addend: 0x0, symName: __ZNSt3__1neB7v160006ERKNS_14__map_iteratorINS_15__tree_iteratorINS_12__value_typeINS_12basic_stringIcNS_11char_traitsIcEENS_9allocatorIcEEEEPPdEEPNS_11__tree_nodeISB_PvEElEEEESJ_, symObjAddr: 0x1160, symBinAddr: 0x1000052D0, symSize: 0x30 }
  - { offsetInCU: 0xD97F, offset: 0xD97F, size: 0x8, addend: 0x0, symName: __ZNSt3__1lsB7v160006IcNS_11char_traitsIcEENS_9allocatorIcEEEERNS_13basic_ostreamIT_T0_EES9_RKNS_12basic_stringIS6_S7_T1_EE, symObjAddr: 0x11F0, symBinAddr: 0x100005360, symSize: 0x50 }
  - { offsetInCU: 0xD9D7, offset: 0xD9D7, size: 0x8, addend: 0x0, symName: __ZNSt3__1neB7v160006ERKNS_14__map_iteratorINS_15__tree_iteratorINS_12__value_typeINS_12basic_stringIcNS_11char_traitsIcEENS_9allocatorIcEEEEPdEEPNS_11__tree_nodeISA_PvEElEEEESI_, symObjAddr: 0x12F0, symBinAddr: 0x100005460, symSize: 0x30 }
  - { offsetInCU: 0xDAFC, offset: 0xDAFC, size: 0x8, addend: 0x0, symName: __ZNSt3__1neB7v160006IPNS_4pairIiPPdEEEEbRKNS_11__wrap_iterIT_EESA_, symObjAddr: 0x1870, symBinAddr: 0x1000059E0, symSize: 0x30 }
  - { offsetInCU: 0xDB3F, offset: 0xDB3F, size: 0x8, addend: 0x0, symName: __ZNSt3__14endlB7v160006IcNS_11char_traitsIcEEEERNS_13basic_ostreamIT_T0_EES7_, symObjAddr: 0x2B80, symBinAddr: 0x100006CF0, symSize: 0x50 }
  - { offsetInCU: 0xDB7F, offset: 0xDB7F, size: 0x8, addend: 0x0, symName: __ZNSt3__13getB7v160006ILm0EKNS_12basic_stringIcNS_11char_traitsIcEENS_9allocatorIcEEEEPPdEERNS_13tuple_elementIXT_ENS_4pairIT0_T1_EEE4typeERSE_, symObjAddr: 0x31B0, symBinAddr: 0x100007320, symSize: 0x20 }
  - { offsetInCU: 0xDBC8, offset: 0xDBC8, size: 0x8, addend: 0x0, symName: __ZNSt3__13getB7v160006ILm1EKNS_12basic_stringIcNS_11char_traitsIcEENS_9allocatorIcEEEEPPdEERNS_13tuple_elementIXT_ENS_4pairIT0_T1_EEE4typeERSE_, symObjAddr: 0x31D0, symBinAddr: 0x100007340, symSize: 0x20 }
  - { offsetInCU: 0xDCDB, offset: 0xDCDB, size: 0x8, addend: 0x0, symName: __ZNSt3__13getB7v160006ILm0EKNS_12basic_stringIcNS_11char_traitsIcEENS_9allocatorIcEEEEPdEERNS_13tuple_elementIXT_ENS_4pairIT0_T1_EEE4typeERSD_, symObjAddr: 0x3290, symBinAddr: 0x100007400, symSize: 0x20 }
  - { offsetInCU: 0xDD24, offset: 0xDD24, size: 0x8, addend: 0x0, symName: __ZNSt3__13getB7v160006ILm1EKNS_12basic_stringIcNS_11char_traitsIcEENS_9allocatorIcEEEEPdEERNS_13tuple_elementIXT_ENS_4pairIT0_T1_EEE4typeERSD_, symObjAddr: 0x32B0, symBinAddr: 0x100007420, symSize: 0x20 }
  - { offsetInCU: 0xDD6D, offset: 0xDD6D, size: 0x8, addend: 0x0, symName: __ZNSt3__1eqB7v160006IPNS_4pairIiPPdEEEEbRKNS_11__wrap_iterIT_EESA_, symObjAddr: 0x3500, symBinAddr: 0x100007670, symSize: 0x40 }
  - { offsetInCU: 0xDDB0, offset: 0xDDB0, size: 0x8, addend: 0x0, symName: __ZNSt3__119__debug_db_insert_cB7v160006INS_12basic_stringIcNS_11char_traitsIcEENS_9allocatorIcEEEEEEvPT_, symObjAddr: 0x3880, symBinAddr: 0x1000079F0, symSize: 0x10 }
  - { offsetInCU: 0xDDE1, offset: 0xDDE1, size: 0x8, addend: 0x0, symName: __ZNSt3__116__pad_and_outputB7v160006IcNS_11char_traitsIcEEEENS_19ostreambuf_iteratorIT_T0_EES6_PKS4_S8_S8_RNS_8ios_baseES4_, symObjAddr: 0x3BE0, symBinAddr: 0x100007D50, symSize: 0x220 }
  - { offsetInCU: 0xDEB1, offset: 0xDEB1, size: 0x8, addend: 0x0, symName: __ZNSt3__112__to_addressB7v160006IKcEEPT_S3_, symObjAddr: 0x4040, symBinAddr: 0x1000081B0, symSize: 0x10 }
  - { offsetInCU: 0xDF19, offset: 0xDF19, size: 0x8, addend: 0x0, symName: __ZNSt3__19use_facetB7v160006INS_5ctypeIcEEEERKT_RKNS_6localeE, symObjAddr: 0x4290, symBinAddr: 0x100008400, symSize: 0x30 }
  - { offsetInCU: 0xE3E8, offset: 0xE3E8, size: 0x8, addend: 0x0, symName: __ZNSt3__118__constexpr_strlenB7v160006EPKc, symObjAddr: 0x4320, symBinAddr: 0x100008490, symSize: 0x20 }
  - { offsetInCU: 0xE447, offset: 0xE447, size: 0x8, addend: 0x0, symName: __ZNSt3__1neB7v160006ERKNS_15__tree_iteratorINS_12__value_typeINS_12basic_stringIcNS_11char_traitsIcEENS_9allocatorIcEEEEPPdEEPNS_11__tree_nodeISA_PvEElEESH_, symObjAddr: 0x4670, symBinAddr: 0x1000087E0, symSize: 0x30 }
  - { offsetInCU: 0xE484, offset: 0xE484, size: 0x8, addend: 0x0, symName: __ZNSt3__1eqB7v160006ERKNS_15__tree_iteratorINS_12__value_typeINS_12basic_stringIcNS_11char_traitsIcEENS_9allocatorIcEEEEPPdEEPNS_11__tree_nodeISA_PvEElEESH_, symObjAddr: 0x46A0, symBinAddr: 0x100008810, symSize: 0x30 }
  - { offsetInCU: 0xE4C1, offset: 0xE4C1, size: 0x8, addend: 0x0, symName: __ZNSt3__116__tree_next_iterB7v160006IPNS_15__tree_end_nodeIPNS_16__tree_node_baseIPvEEEES5_EET_T0_, symObjAddr: 0x4700, symBinAddr: 0x100008870, symSize: 0x90 }
  - { offsetInCU: 0xE4FF, offset: 0xE4FF, size: 0x8, addend: 0x0, symName: __ZNSt3__110__tree_minB7v160006IPNS_16__tree_node_baseIPvEEEET_S5_, symObjAddr: 0x4790, symBinAddr: 0x100008900, symSize: 0x30 }
  - { offsetInCU: 0xE534, offset: 0xE534, size: 0x8, addend: 0x0, symName: __ZNSt3__120__tree_is_left_childB7v160006IPNS_16__tree_node_baseIPvEEEEbT_, symObjAddr: 0x47C0, symBinAddr: 0x100008930, symSize: 0x30 }
  - { offsetInCU: 0xE59C, offset: 0xE59C, size: 0x8, addend: 0x0, symName: __ZNSt3__1neB7v160006ERKNS_15__tree_iteratorINS_12__value_typeINS_12basic_stringIcNS_11char_traitsIcEENS_9allocatorIcEEEEPdEEPNS_11__tree_nodeIS9_PvEElEESG_, symObjAddr: 0x4A80, symBinAddr: 0x100008BF0, symSize: 0x30 }
  - { offsetInCU: 0xE5D9, offset: 0xE5D9, size: 0x8, addend: 0x0, symName: __ZNSt3__1eqB7v160006ERKNS_15__tree_iteratorINS_12__value_typeINS_12basic_stringIcNS_11char_traitsIcEENS_9allocatorIcEEEEPdEEPNS_11__tree_nodeIS9_PvEElEESG_, symObjAddr: 0x4AB0, symBinAddr: 0x100008C20, symSize: 0x30 }
  - { offsetInCU: 0xE649, offset: 0xE649, size: 0x8, addend: 0x0, symName: __ZNSt3__119__debug_db_insert_cB7v160006INS_6vectorINS_4pairIiPPdEENS_9allocatorIS5_EEEEEEvPT_, symObjAddr: 0x4C10, symBinAddr: 0x100008D80, symSize: 0x10 }
  - { offsetInCU: 0xE67A, offset: 0xE67A, size: 0x8, addend: 0x0, symName: __ZNSt3__118__debug_db_erase_cB7v160006INS_6vectorINS_4pairIiPPdEENS_9allocatorIS5_EEEEEEvPT_, symObjAddr: 0x4EA0, symBinAddr: 0x100009010, symSize: 0x10 }
  - { offsetInCU: 0xE6AB, offset: 0xE6AB, size: 0x8, addend: 0x0, symName: __ZNSt3__112__to_addressB7v160006INS_4pairIiPPdEEEEPT_S6_, symObjAddr: 0x4FB0, symBinAddr: 0x100009120, symSize: 0x10 }
  - { offsetInCU: 0xE6E0, offset: 0xE6E0, size: 0x8, addend: 0x0, symName: __ZNSt3__119__libcpp_deallocateB7v160006EPvmm, symObjAddr: 0x50C0, symBinAddr: 0x100009230, symSize: 0x30 }
  - { offsetInCU: 0xE728, offset: 0xE728, size: 0x8, addend: 0x0, symName: __ZNSt3__127__do_deallocate_handle_sizeB7v160006IJEEEvPvmDpT_, symObjAddr: 0x50F0, symBinAddr: 0x100009260, symSize: 0x20 }
  - { offsetInCU: 0xE766, offset: 0xE766, size: 0x8, addend: 0x0, symName: __ZNSt3__124__libcpp_operator_deleteB7v160006IJPvEEEvDpT_, symObjAddr: 0x5110, symBinAddr: 0x100009280, symSize: 0x20 }
  - { offsetInCU: 0xE79B, offset: 0xE79B, size: 0x8, addend: 0x0, symName: __ZNSt3__13maxB7v160006ImEERKT_S3_S3_, symObjAddr: 0x5720, symBinAddr: 0x100009890, symSize: 0x30 }
  - { offsetInCU: 0xE7DE, offset: 0xE7DE, size: 0x8, addend: 0x0, symName: __ZNSt3__13minB7v160006ImEERKT_S3_S3_, symObjAddr: 0x5750, symBinAddr: 0x1000098C0, symSize: 0x30 }
  - { offsetInCU: 0xEA22, offset: 0xEA22, size: 0x8, addend: 0x0, symName: __ZNSt3__13minB7v160006ImNS_6__lessImmEEEERKT_S5_S5_T0_, symObjAddr: 0x57D0, symBinAddr: 0x100009940, symSize: 0x50 }
  - { offsetInCU: 0xEAB7, offset: 0xEAB7, size: 0x8, addend: 0x0, symName: __ZNSt3__120__throw_length_errorB7v160006EPKc, symObjAddr: 0x58B0, symBinAddr: 0x100009A20, symSize: 0x70 }
  - { offsetInCU: 0xEADF, offset: 0xEADF, size: 0x8, addend: 0x0, symName: __ZNSt3__13maxB7v160006ImNS_6__lessImmEEEERKT_S5_S5_T0_, symObjAddr: 0x5990, symBinAddr: 0x100009B00, symSize: 0x50 }
  - { offsetInCU: 0xEB39, offset: 0xEB39, size: 0x8, addend: 0x0, symName: __ZNSt3__119__allocate_at_leastB7v160006INS_9allocatorINS_4pairIiPPdEEEEEENS_19__allocation_resultINS_16allocator_traitsIT_E7pointerEEERS9_m, symObjAddr: 0x5AE0, symBinAddr: 0x100009C50, symSize: 0x40 }
  - { offsetInCU: 0xEB7C, offset: 0xEB7C, size: 0x8, addend: 0x0, symName: __ZNSt3__117__libcpp_allocateB7v160006Emm, symObjAddr: 0x5C50, symBinAddr: 0x100009DC0, symSize: 0x20 }
  - { offsetInCU: 0xEBB9, offset: 0xEBB9, size: 0x8, addend: 0x0, symName: __ZNSt3__121__libcpp_operator_newB7v160006IJmEEEPvDpT_, symObjAddr: 0x5C70, symBinAddr: 0x100009DE0, symSize: 0x20 }
  - { offsetInCU: 0xEBF2, offset: 0xEBF2, size: 0x8, addend: 0x0, symName: __ZNSt3__142__uninitialized_allocator_move_if_noexceptB7v160006INS_9allocatorINS_4pairIiPPdEEEENS_16reverse_iteratorIPS5_EES9_S9_EET2_RT_T0_T1_SA_, symObjAddr: 0x5CF0, symBinAddr: 0x100009E60, symSize: 0x180 }
  - { offsetInCU: 0xEC91, offset: 0xEC91, size: 0x8, addend: 0x0, symName: __ZNSt3__14swapB7v160006IPNS_4pairIiPPdEEEENS_9enable_ifIXaasr21is_move_constructibleIT_EE5valuesr18is_move_assignableIS7_EE5valueEvE4typeERS7_SA_, symObjAddr: 0x5EC0, symBinAddr: 0x10000A030, symSize: 0x40 }
  - { offsetInCU: 0xECE2, offset: 0xECE2, size: 0x8, addend: 0x0, symName: __ZNSt3__125__debug_db_invalidate_allB7v160006INS_6vectorINS_4pairIiPPdEENS_9allocatorIS5_EEEEEEvPT_, symObjAddr: 0x5FB0, symBinAddr: 0x10000A120, symSize: 0x10 }
  - { offsetInCU: 0xED13, offset: 0xED13, size: 0x8, addend: 0x0, symName: __ZNSt3__122__make_exception_guardB7v160006INS_29_AllocatorDestroyRangeReverseINS_9allocatorINS_4pairIiPPdEEEENS_16reverse_iteratorIPS6_EEEEEENS_28__exception_guard_exceptionsIT_EESD_, symObjAddr: 0x5FC0, symBinAddr: 0x10000A130, symSize: 0x60 }
  - { offsetInCU: 0xED48, offset: 0xED48, size: 0x8, addend: 0x0, symName: __ZNSt3__1neB7v160006IPNS_4pairIiPPdEES5_EEbRKNS_16reverse_iteratorIT_EERKNS6_IT0_EE, symObjAddr: 0x6060, symBinAddr: 0x10000A1D0, symSize: 0x40 }
  - { offsetInCU: 0xED94, offset: 0xED94, size: 0x8, addend: 0x0, symName: __ZNSt3__112__to_addressB7v160006INS_16reverse_iteratorIPNS_4pairIiPPdEEEEvEENS_5decayIDTclsr19__to_address_helperIT_EE6__callclsr3stdE7declvalIRKS9_EEEEE4typeESB_, symObjAddr: 0x60A0, symBinAddr: 0x10000A210, symSize: 0x20 }
  - { offsetInCU: 0xEDF3, offset: 0xEDF3, size: 0x8, addend: 0x0, symName: __ZNSt3__119__allocator_destroyB7v160006INS_9allocatorINS_4pairIiPPdEEEENS_16reverse_iteratorINS7_IPS5_EEEESA_EEvRT_T0_T1_, symObjAddr: 0x6390, symBinAddr: 0x10000A500, symSize: 0x70 }
  - { offsetInCU: 0xEE56, offset: 0xEE56, size: 0x8, addend: 0x0, symName: __ZNSt3__1neB7v160006INS_16reverse_iteratorIPNS_4pairIiPPdEEEES7_EEbRKNS1_IT_EERKNS1_IT0_EE, symObjAddr: 0x6430, symBinAddr: 0x10000A5A0, symSize: 0x50 }
  - { offsetInCU: 0xEEA2, offset: 0xEEA2, size: 0x8, addend: 0x0, symName: __ZNSt3__112__to_addressB7v160006INS_16reverse_iteratorINS1_IPNS_4pairIiPPdEEEEEEvEENS_5decayIDTclsr19__to_address_helperIT_EE6__callclsr3stdE7declvalIRKSA_EEEEE4typeESC_, symObjAddr: 0x6480, symBinAddr: 0x10000A5F0, symSize: 0x20 }
  - { offsetInCU: 0xEF38, offset: 0xEF38, size: 0x8, addend: 0x0, symName: __ZNSt3__116forward_as_tupleB7v160006IJNS_12basic_stringIcNS_11char_traitsIcEENS_9allocatorIcEEEEEEENS_5tupleIJDpOT_EEESA_, symObjAddr: 0x7440, symBinAddr: 0x10000B5B0, symSize: 0x30 }
  - { offsetInCU: 0xEF71, offset: 0xEF71, size: 0x8, addend: 0x0, symName: __ZNSt3__116forward_as_tupleB7v160006IJEEENS_5tupleIJDpOT_EEES4_, symObjAddr: 0x7470, symBinAddr: 0x10000B5E0, symSize: 0x10 }
  - { offsetInCU: 0xEF95, offset: 0xEF95, size: 0x8, addend: 0x0, symName: __ZNSt3__1ltB7v160006IcNS_11char_traitsIcEENS_9allocatorIcEEEEbRKNS_12basic_stringIT_T0_T1_EESB_, symObjAddr: 0x79F0, symBinAddr: 0x10000BB60, symSize: 0x30 }
  - { offsetInCU: 0xF011, offset: 0xF011, size: 0x8, addend: 0x0, symName: __ZNSt3__118__constexpr_memcmpB7v160006IcEEiPKT_S3_m, symObjAddr: 0x7C40, symBinAddr: 0x10000BDB0, symSize: 0x30 }
  - { offsetInCU: 0xF08B, offset: 0xF08B, size: 0x8, addend: 0x0, symName: __ZNSt3__13getB7v160006ILm0EJONS_12basic_stringIcNS_11char_traitsIcEENS_9allocatorIcEEEEEEERNS_13tuple_elementIXT_ENS_5tupleIJDpT0_EEEE4typeERSC_, symObjAddr: 0x80D0, symBinAddr: 0x10000C240, symSize: 0x20 }
  - { offsetInCU: 0xF0CE, offset: 0xF0CE, size: 0x8, addend: 0x0, symName: __ZNSt3__115__debug_db_swapB7v160006INS_12basic_stringIcNS_11char_traitsIcEENS_9allocatorIcEEEEEEvPT_S8_, symObjAddr: 0x81C0, symBinAddr: 0x10000C330, symSize: 0x10 }
  - { offsetInCU: 0xF10D, offset: 0xF10D, size: 0x8, addend: 0x0, symName: __ZNSt3__127__tree_balance_after_insertB7v160006IPNS_16__tree_node_baseIPvEEEEvT_S5_, symObjAddr: 0x8230, symBinAddr: 0x10000C3A0, symSize: 0x240 }
  - { offsetInCU: 0xF189, offset: 0xF189, size: 0x8, addend: 0x0, symName: __ZNSt3__118__tree_left_rotateB7v160006IPNS_16__tree_node_baseIPvEEEEvT_, symObjAddr: 0x8490, symBinAddr: 0x10000C600, symSize: 0xD0 }
  - { offsetInCU: 0xF1CB, offset: 0xF1CB, size: 0x8, addend: 0x0, symName: __ZNSt3__119__tree_right_rotateB7v160006IPNS_16__tree_node_baseIPvEEEEvT_, symObjAddr: 0x8560, symBinAddr: 0x10000C6D0, symSize: 0xC0 }
  - { offsetInCU: 0xF24F, offset: 0xF24F, size: 0x8, addend: 0x0, symName: __ZNSt3__1neB7v160006ERKNS_20__map_const_iteratorINS_21__tree_const_iteratorINS_12__value_typeINS_12basic_stringIcNS_11char_traitsIcEENS_9allocatorIcEEEEPPdEEPNS_11__tree_nodeISB_PvEElEEEESJ_, symObjAddr: 0x98D0, symBinAddr: 0x10000DA40, symSize: 0x30 }
  - { offsetInCU: 0xF28C, offset: 0xF28C, size: 0x8, addend: 0x0, symName: __ZNSt3__1neB7v160006ERKNS_21__tree_const_iteratorINS_12__value_typeINS_12basic_stringIcNS_11char_traitsIcEENS_9allocatorIcEEEEPPdEEPNS_11__tree_nodeISA_PvEElEESH_, symObjAddr: 0x99E0, symBinAddr: 0x10000DB50, symSize: 0x30 }
  - { offsetInCU: 0xF2C9, offset: 0xF2C9, size: 0x8, addend: 0x0, symName: __ZNSt3__1eqB7v160006ERKNS_21__tree_const_iteratorINS_12__value_typeINS_12basic_stringIcNS_11char_traitsIcEENS_9allocatorIcEEEEPPdEEPNS_11__tree_nodeISA_PvEElEESH_, symObjAddr: 0x9A10, symBinAddr: 0x10000DB80, symSize: 0x30 }
  - { offsetInCU: 0xF32A, offset: 0xF32A, size: 0x8, addend: 0x0, symName: __ZNSt3__14nextB7v160006INS_21__tree_const_iteratorINS_12__value_typeINS_12basic_stringIcNS_11char_traitsIcEENS_9allocatorIcEEEEPPdEEPNS_11__tree_nodeISB_PvEElEEEENS_9enable_ifIXsr25__is_cpp17_input_iteratorIT_EE5valueESI_E4typeESI_NS_15iterator_traitsISI_E15difference_typeE, symObjAddr: 0xA060, symBinAddr: 0x10000E1D0, symSize: 0x50 }
  - { offsetInCU: 0xF36D, offset: 0xF36D, size: 0x8, addend: 0x0, symName: __ZNSt3__116__tree_prev_iterB7v160006IPNS_16__tree_node_baseIPvEEPNS_15__tree_end_nodeIS4_EEEET_T0_, symObjAddr: 0xA0F0, symBinAddr: 0x10000E260, symSize: 0x80 }
  - { offsetInCU: 0xF3B9, offset: 0xF3B9, size: 0x8, addend: 0x0, symName: __ZNSt3__110__tree_maxB7v160006IPNS_16__tree_node_baseIPvEEEET_S5_, symObjAddr: 0xA170, symBinAddr: 0x10000E2E0, symSize: 0x30 }
  - { offsetInCU: 0xF3EE, offset: 0xF3EE, size: 0x8, addend: 0x0, symName: __ZNSt3__121__convert_to_integralB7v160006El, symObjAddr: 0xA1F0, symBinAddr: 0x10000E360, symSize: 0x10 }
  - { offsetInCU: 0xF41A, offset: 0xF41A, size: 0x8, addend: 0x0, symName: __ZNSt3__19__advanceB7v160006INS_21__tree_const_iteratorINS_12__value_typeINS_12basic_stringIcNS_11char_traitsIcEENS_9allocatorIcEEEEPPdEEPNS_11__tree_nodeISB_PvEElEEEEvRT_NS_15iterator_traitsISH_E15difference_typeENS_26bidirectional_iterator_tagE, symObjAddr: 0xA200, symBinAddr: 0x10000E370, symSize: 0x80 }
  - { offsetInCU: 0xF496, offset: 0xF496, size: 0x8, addend: 0x0, symName: __ZNSt3__1neB7v160006ERKNS_20__map_const_iteratorINS_21__tree_const_iteratorINS_12__value_typeINS_12basic_stringIcNS_11char_traitsIcEENS_9allocatorIcEEEEPdEEPNS_11__tree_nodeISA_PvEElEEEESI_, symObjAddr: 0xA840, symBinAddr: 0x10000E9B0, symSize: 0x30 }
  - { offsetInCU: 0xF4D3, offset: 0xF4D3, size: 0x8, addend: 0x0, symName: __ZNSt3__1neB7v160006ERKNS_21__tree_const_iteratorINS_12__value_typeINS_12basic_stringIcNS_11char_traitsIcEENS_9allocatorIcEEEEPdEEPNS_11__tree_nodeIS9_PvEElEESG_, symObjAddr: 0xA950, symBinAddr: 0x10000EAC0, symSize: 0x30 }
  - { offsetInCU: 0xF510, offset: 0xF510, size: 0x8, addend: 0x0, symName: __ZNSt3__1eqB7v160006ERKNS_21__tree_const_iteratorINS_12__value_typeINS_12basic_stringIcNS_11char_traitsIcEENS_9allocatorIcEEEEPdEEPNS_11__tree_nodeIS9_PvEElEESG_, symObjAddr: 0xA980, symBinAddr: 0x10000EAF0, symSize: 0x30 }
  - { offsetInCU: 0xF54D, offset: 0xF54D, size: 0x8, addend: 0x0, symName: __ZNSt3__14nextB7v160006INS_21__tree_const_iteratorINS_12__value_typeINS_12basic_stringIcNS_11char_traitsIcEENS_9allocatorIcEEEEPdEEPNS_11__tree_nodeISA_PvEElEEEENS_9enable_ifIXsr25__is_cpp17_input_iteratorIT_EE5valueESH_E4typeESH_NS_15iterator_traitsISH_E15difference_typeE, symObjAddr: 0xAFD0, symBinAddr: 0x10000F140, symSize: 0x50 }
  - { offsetInCU: 0xF590, offset: 0xF590, size: 0x8, addend: 0x0, symName: __ZNSt3__19__advanceB7v160006INS_21__tree_const_iteratorINS_12__value_typeINS_12basic_stringIcNS_11char_traitsIcEENS_9allocatorIcEEEEPdEEPNS_11__tree_nodeISA_PvEElEEEEvRT_NS_15iterator_traitsISG_E15difference_typeENS_26bidirectional_iterator_tagE, symObjAddr: 0xB0B0, symBinAddr: 0x10000F220, symSize: 0x80 }
  - { offsetInCU: 0xF9F2, offset: 0xF9F2, size: 0x8, addend: 0x0, symName: __ZSt28__throw_bad_array_new_lengthB7v160006v, symObjAddr: 0x5C10, symBinAddr: 0x100009D80, symSize: 0x40 }
  - { offsetInCU: 0x105F6, offset: 0x105F6, size: 0x8, addend: 0x0, symName: __ZNSt3__16vectorINS_4pairIiPPdEENS_9allocatorIS4_EEE26__swap_out_circular_bufferERNS_14__split_bufferIS4_RS6_EE, symObjAddr: 0x5550, symBinAddr: 0x1000096C0, symSize: 0x130 }
  - { offsetInCU: 0x12A8D, offset: 0x12A8D, size: 0x8, addend: 0x0, symName: __Z6filterd, symObjAddr: 0x0, symBinAddr: 0x100004170, symSize: 0x50 }
  - { offsetInCU: 0x12AB9, offset: 0x12AB9, size: 0x8, addend: 0x0, symName: __Z3absB7v160006d, symObjAddr: 0x50, symBinAddr: 0x1000041C0, symSize: 0x20 }
  - { offsetInCU: 0x12AE5, offset: 0x12AE5, size: 0x8, addend: 0x0, symName: __Z7saveVTKiR5WorldNSt3__13mapINS1_12basic_stringIcNS1_11char_traitsIcEENS1_9allocatorIcEEEEPPdNS1_4lessIS8_EENS6_INS1_4pairIKS8_SA_EEEEEENS2_IS8_S9_SC_NS6_INSD_ISE_S9_EEEEEE, symObjAddr: 0x70, symBinAddr: 0x1000041E0, symSize: 0xC90 }
  - { offsetInCU: 0x12D37, offset: 0x12D37, size: 0x8, addend: 0x0, symName: __ZNSt3__118basic_stringstreamIcNS_11char_traitsIcEENS_9allocatorIcEEEC1B7v160006Ev, symObjAddr: 0xD00, symBinAddr: 0x100004E70, symSize: 0x100 }
  - { offsetInCU: 0x12D61, offset: 0x12D61, size: 0x8, addend: 0x0, symName: __ZNKSt3__118basic_stringstreamIcNS_11char_traitsIcEENS_9allocatorIcEEE3strB7v160006Ev, symObjAddr: 0xF10, symBinAddr: 0x100005080, symSize: 0x30 }
  - { offsetInCU: 0x12E20, offset: 0x12E20, size: 0x8, addend: 0x0, symName: __ZNSt3__114basic_ofstreamIcNS_11char_traitsIcEEEC1ERKNS_12basic_stringIcS2_NS_9allocatorIcEEEEj, symObjAddr: 0xF40, symBinAddr: 0x1000050B0, symSize: 0x160 }
  - { offsetInCU: 0x12E6A, offset: 0x12E6A, size: 0x8, addend: 0x0, symName: __ZNSt3__13mapINS_12basic_stringIcNS_11char_traitsIcEENS_9allocatorIcEEEEPPdNS_4lessIS6_EENS4_INS_4pairIKS6_S8_EEEEE5beginB7v160006Ev, symObjAddr: 0x1100, symBinAddr: 0x100005270, symSize: 0x30 }
  - { offsetInCU: 0x12E90, offset: 0x12E90, size: 0x8, addend: 0x0, symName: __ZNSt3__13mapINS_12basic_stringIcNS_11char_traitsIcEENS_9allocatorIcEEEEPPdNS_4lessIS6_EENS4_INS_4pairIKS6_S8_EEEEE3endB7v160006Ev, symObjAddr: 0x1130, symBinAddr: 0x1000052A0, symSize: 0x30 }
  - { offsetInCU: 0x12EB6, offset: 0x12EB6, size: 0x8, addend: 0x0, symName: __ZNKSt3__114__map_iteratorINS_15__tree_iteratorINS_12__value_typeINS_12basic_stringIcNS_11char_traitsIcEENS_9allocatorIcEEEEPPdEEPNS_11__tree_nodeISB_PvEElEEEdeB7v160006Ev, symObjAddr: 0x1190, symBinAddr: 0x100005300, symSize: 0x30 }
  - { offsetInCU: 0x12EF5, offset: 0x12EF5, size: 0x8, addend: 0x0, symName: __ZNSt3__14pairINS_12basic_stringIcNS_11char_traitsIcEENS_9allocatorIcEEEEPPdEC1B7v160006IRNS0_IKS6_S8_EELPv0EEEOT_, symObjAddr: 0x11C0, symBinAddr: 0x100005330, symSize: 0x30 }
  - { offsetInCU: 0x12F3D, offset: 0x12F3D, size: 0x8, addend: 0x0, symName: __ZNSt3__14pairINS_12basic_stringIcNS_11char_traitsIcEENS_9allocatorIcEEEEPPdED1Ev, symObjAddr: 0x1240, symBinAddr: 0x1000053B0, symSize: 0x20 }
  - { offsetInCU: 0x12F69, offset: 0x12F69, size: 0x8, addend: 0x0, symName: __ZNSt3__114__map_iteratorINS_15__tree_iteratorINS_12__value_typeINS_12basic_stringIcNS_11char_traitsIcEENS_9allocatorIcEEEEPPdEEPNS_11__tree_nodeISB_PvEElEEEppB7v160006Ev, symObjAddr: 0x1260, symBinAddr: 0x1000053D0, symSize: 0x30 }
  - { offsetInCU: 0x12F8F, offset: 0x12F8F, size: 0x8, addend: 0x0, symName: __ZNSt3__13mapINS_12basic_stringIcNS_11char_traitsIcEENS_9allocatorIcEEEEPdNS_4lessIS6_EENS4_INS_4pairIKS6_S7_EEEEE5beginB7v160006Ev, symObjAddr: 0x1290, symBinAddr: 0x100005400, symSize: 0x30 }
  - { offsetInCU: 0x12FB5, offset: 0x12FB5, size: 0x8, addend: 0x0, symName: __ZNSt3__13mapINS_12basic_stringIcNS_11char_traitsIcEENS_9allocatorIcEEEEPdNS_4lessIS6_EENS4_INS_4pairIKS6_S7_EEEEE3endB7v160006Ev, symObjAddr: 0x12C0, symBinAddr: 0x100005430, symSize: 0x30 }
  - { offsetInCU: 0x12FDB, offset: 0x12FDB, size: 0x8, addend: 0x0, symName: __ZNKSt3__114__map_iteratorINS_15__tree_iteratorINS_12__value_typeINS_12basic_stringIcNS_11char_traitsIcEENS_9allocatorIcEEEEPdEEPNS_11__tree_nodeISA_PvEElEEEdeB7v160006Ev, symObjAddr: 0x1320, symBinAddr: 0x100005490, symSize: 0x30 }
  - { offsetInCU: 0x1301A, offset: 0x1301A, size: 0x8, addend: 0x0, symName: __ZNSt3__14pairINS_12basic_stringIcNS_11char_traitsIcEENS_9allocatorIcEEEEPdEC1B7v160006IRNS0_IKS6_S7_EELPv0EEEOT_, symObjAddr: 0x1350, symBinAddr: 0x1000054C0, symSize: 0x30 }
  - { offsetInCU: 0x13062, offset: 0x13062, size: 0x8, addend: 0x0, symName: __ZNSt3__14pairINS_12basic_stringIcNS_11char_traitsIcEENS_9allocatorIcEEEEPdED1Ev, symObjAddr: 0x1380, symBinAddr: 0x1000054F0, symSize: 0x20 }
  - { offsetInCU: 0x1308E, offset: 0x1308E, size: 0x8, addend: 0x0, symName: __ZNSt3__114__map_iteratorINS_15__tree_iteratorINS_12__value_typeINS_12basic_stringIcNS_11char_traitsIcEENS_9allocatorIcEEEEPdEEPNS_11__tree_nodeISA_PvEElEEEppB7v160006Ev, symObjAddr: 0x13A0, symBinAddr: 0x100005510, symSize: 0x30 }
  - { offsetInCU: 0x130B4, offset: 0x130B4, size: 0x8, addend: 0x0, symName: __ZNSt3__114basic_ofstreamIcNS_11char_traitsIcEEE5closeEv, symObjAddr: 0x13D0, symBinAddr: 0x100005540, symSize: 0x50 }
  - { offsetInCU: 0x130E1, offset: 0x130E1, size: 0x8, addend: 0x0, symName: __ZNSt3__114basic_ofstreamIcNS_11char_traitsIcEEED1Ev, symObjAddr: 0x1420, symBinAddr: 0x100005590, symSize: 0x40 }
  - { offsetInCU: 0x13113, offset: 0x13113, size: 0x8, addend: 0x0, symName: __ZNSt3__118basic_stringstreamIcNS_11char_traitsIcEENS_9allocatorIcEEED1Ev, symObjAddr: 0x1460, symBinAddr: 0x1000055D0, symSize: 0x40 }
  - { offsetInCU: 0x13140, offset: 0x13140, size: 0x8, addend: 0x0, symName: __ZNSt3__16vectorINS_4pairIiPPdEENS_9allocatorIS4_EEEC1B7v160006Ev, symObjAddr: 0x14A0, symBinAddr: 0x100005610, symSize: 0x20 }
  - { offsetInCU: 0x1316A, offset: 0x1316A, size: 0x8, addend: 0x0, symName: __ZNSt3__16vectorINS_4pairIiPPdEENS_9allocatorIS4_EEED1B7v160006Ev, symObjAddr: 0x14C0, symBinAddr: 0x100005630, symSize: 0x20 }
  - { offsetInCU: 0x13193, offset: 0x13193, size: 0x8, addend: 0x0, symName: __Z11newAndClearii, symObjAddr: 0x14E0, symBinAddr: 0x100005650, symSize: 0xE0 }
  - { offsetInCU: 0x131F8, offset: 0x131F8, size: 0x8, addend: 0x0, symName: __ZNSt3__16vectorINS_4pairIiPPdEENS_9allocatorIS4_EEE12emplace_backIJS4_EEEvDpOT_, symObjAddr: 0x15C0, symBinAddr: 0x100005730, symSize: 0x60 }
  - { offsetInCU: 0x1323F, offset: 0x1323F, size: 0x8, addend: 0x0, symName: __ZNSt3__14pairIiPPdEC1B7v160006IRiRS2_LPv0EEEOT_OT0_, symObjAddr: 0x1620, symBinAddr: 0x100005790, symSize: 0x30 }
  - { offsetInCU: 0x1329C, offset: 0x1329C, size: 0x8, addend: 0x0, symName: __Z11newAndCleari, symObjAddr: 0x1650, symBinAddr: 0x1000057C0, symSize: 0xA0 }
  - { offsetInCU: 0x132DC, offset: 0x132DC, size: 0x8, addend: 0x0, symName: __ZNSt3__14pairIiPPdEC1B7v160006IiRS2_LPv0EEEOT_OT0_, symObjAddr: 0x16F0, symBinAddr: 0x100005860, symSize: 0x30 }
  - { offsetInCU: 0x13339, offset: 0x13339, size: 0x8, addend: 0x0, symName: __Z9deleteAllv, symObjAddr: 0x1720, symBinAddr: 0x100005890, symSize: 0xF0 }
  - { offsetInCU: 0x133C1, offset: 0x133C1, size: 0x8, addend: 0x0, symName: __ZNSt3__16vectorINS_4pairIiPPdEENS_9allocatorIS4_EEE5beginB7v160006Ev, symObjAddr: 0x1810, symBinAddr: 0x100005980, symSize: 0x30 }
  - { offsetInCU: 0x133E9, offset: 0x133E9, size: 0x8, addend: 0x0, symName: __ZNSt3__16vectorINS_4pairIiPPdEENS_9allocatorIS4_EEE3endB7v160006Ev, symObjAddr: 0x1840, symBinAddr: 0x1000059B0, symSize: 0x30 }
  - { offsetInCU: 0x13411, offset: 0x13411, size: 0x8, addend: 0x0, symName: __ZNKSt3__111__wrap_iterIPNS_4pairIiPPdEEEdeB7v160006Ev, symObjAddr: 0x18A0, symBinAddr: 0x100005A10, symSize: 0x20 }
  - { offsetInCU: 0x13437, offset: 0x13437, size: 0x8, addend: 0x0, symName: __ZNSt3__111__wrap_iterIPNS_4pairIiPPdEEEppB7v160006Ev, symObjAddr: 0x18C0, symBinAddr: 0x100005A30, symSize: 0x20 }
  - { offsetInCU: 0x1345C, offset: 0x1345C, size: 0x8, addend: 0x0, symName: __Z21solvePoissonsEquationR5WorldPdS1_, symObjAddr: 0x18E0, symBinAddr: 0x100005A50, symSize: 0x5C0 }
  - { offsetInCU: 0x13587, offset: 0x13587, size: 0x8, addend: 0x0, symName: _main, symObjAddr: 0x1EA0, symBinAddr: 0x100006010, symSize: 0xC30 }
  - { offsetInCU: 0x13977, offset: 0x13977, size: 0x8, addend: 0x0, symName: __ZN5World9setLimitsEdd, symObjAddr: 0x2AD0, symBinAddr: 0x100006C40, symSize: 0x30 }
  - { offsetInCU: 0x139B9, offset: 0x139B9, size: 0x8, addend: 0x0, symName: __ZN5World8setNodesEii, symObjAddr: 0x2B00, symBinAddr: 0x100006C70, symSize: 0x60 }
  - { offsetInCU: 0x139FB, offset: 0x139FB, size: 0x8, addend: 0x0, symName: __ZNSt3__113basic_ostreamIcNS_11char_traitsIcEEElsB7v160006EPFRS3_S4_E, symObjAddr: 0x2B60, symBinAddr: 0x100006CD0, symSize: 0x20 }
  - { offsetInCU: 0x13A2F, offset: 0x13A2F, size: 0x8, addend: 0x0, symName: __ZNSt3__13mapINS_12basic_stringIcNS_11char_traitsIcEENS_9allocatorIcEEEEPPdNS_4lessIS6_EENS4_INS_4pairIKS6_S8_EEEEEC1B7v160006Ev, symObjAddr: 0x2BD0, symBinAddr: 0x100006D40, symSize: 0x20 }
  - { offsetInCU: 0x13A59, offset: 0x13A59, size: 0x8, addend: 0x0, symName: __ZNSt3__13mapINS_12basic_stringIcNS_11char_traitsIcEENS_9allocatorIcEEEEPdNS_4lessIS6_EENS4_INS_4pairIKS6_S7_EEEEEC1B7v160006Ev, symObjAddr: 0x2BF0, symBinAddr: 0x100006D60, symSize: 0x20 }
  - { offsetInCU: 0x13A83, offset: 0x13A83, size: 0x8, addend: 0x0, symName: __ZNSt3__13mapINS_12basic_stringIcNS_11char_traitsIcEENS_9allocatorIcEEEEPPdNS_4lessIS6_EENS4_INS_4pairIKS6_S8_EEEEEixEOS6_, symObjAddr: 0x2C10, symBinAddr: 0x100006D80, symSize: 0x70 }
  - { offsetInCU: 0x13ABF, offset: 0x13ABF, size: 0x8, addend: 0x0, symName: __ZNSt3__112basic_stringIcNS_11char_traitsIcEENS_9allocatorIcEEEC1B7v160006IDnEEPKc, symObjAddr: 0x2C80, symBinAddr: 0x100006DF0, symSize: 0x30 }
  - { offsetInCU: 0x13AFD, offset: 0x13AFD, size: 0x8, addend: 0x0, symName: __ZNSt3__13mapINS_12basic_stringIcNS_11char_traitsIcEENS_9allocatorIcEEEEPdNS_4lessIS6_EENS4_INS_4pairIKS6_S7_EEEEEixEOS6_, symObjAddr: 0x2CB0, symBinAddr: 0x100006E20, symSize: 0x70 }
  - { offsetInCU: 0x13B34, offset: 0x13B34, size: 0x8, addend: 0x0, symName: __ZN5World4getXEi, symObjAddr: 0x2D20, symBinAddr: 0x100006E90, symSize: 0x30 }
  - { offsetInCU: 0x13B68, offset: 0x13B68, size: 0x8, addend: 0x0, symName: __ZN5World4getVEi, symObjAddr: 0x2D50, symBinAddr: 0x100006EC0, symSize: 0x40 }
  - { offsetInCU: 0x13B9C, offset: 0x13B9C, size: 0x8, addend: 0x0, symName: __ZNSt3__13mapINS_12basic_stringIcNS_11char_traitsIcEENS_9allocatorIcEEEEPPdNS_4lessIS6_EENS4_INS_4pairIKS6_S8_EEEEEC1B7v160006ERKSF_, symObjAddr: 0x2D90, symBinAddr: 0x100006F00, symSize: 0x30 }
  - { offsetInCU: 0x13BD5, offset: 0x13BD5, size: 0x8, addend: 0x0, symName: __ZNSt3__13mapINS_12basic_stringIcNS_11char_traitsIcEENS_9allocatorIcEEEEPdNS_4lessIS6_EENS4_INS_4pairIKS6_S7_EEEEEC1B7v160006ERKSE_, symObjAddr: 0x2DC0, symBinAddr: 0x100006F30, symSize: 0x30 }
  - { offsetInCU: 0x13C0E, offset: 0x13C0E, size: 0x8, addend: 0x0, symName: __ZNSt3__13mapINS_12basic_stringIcNS_11char_traitsIcEENS_9allocatorIcEEEEPdNS_4lessIS6_EENS4_INS_4pairIKS6_S7_EEEEED1B7v160006Ev, symObjAddr: 0x2DF0, symBinAddr: 0x100006F60, symSize: 0x20 }
  - { offsetInCU: 0x13C38, offset: 0x13C38, size: 0x8, addend: 0x0, symName: __ZNSt3__13mapINS_12basic_stringIcNS_11char_traitsIcEENS_9allocatorIcEEEEPPdNS_4lessIS6_EENS4_INS_4pairIKS6_S8_EEEEED1B7v160006Ev, symObjAddr: 0x2E10, symBinAddr: 0x100006F80, symSize: 0x20 }
  - { offsetInCU: 0x13C62, offset: 0x13C62, size: 0x8, addend: 0x0, symName: __ZN5World6interpEPPddd, symObjAddr: 0x2E30, symBinAddr: 0x100006FA0, symSize: 0x270 }
  - { offsetInCU: 0x13D17, offset: 0x13D17, size: 0x8, addend: 0x0, symName: __ZN5WorldD1Ev, symObjAddr: 0x30A0, symBinAddr: 0x100007210, symSize: 0x20 }
  - { offsetInCU: 0x13D41, offset: 0x13D41, size: 0x8, addend: 0x0, symName: __ZNSt3__18__iom_t6C1B7v160006Ei, symObjAddr: 0x30C0, symBinAddr: 0x100007230, symSize: 0x30 }
  - { offsetInCU: 0x13D79, offset: 0x13D79, size: 0x8, addend: 0x0, symName: __ZNSt3__18__iom_t6C2B7v160006Ei, symObjAddr: 0x30F0, symBinAddr: 0x100007260, symSize: 0x20 }
  - { offsetInCU: 0x13DB1, offset: 0x13DB1, size: 0x8, addend: 0x0, symName: __ZNSt3__18__iom_t5C1B7v160006Ei, symObjAddr: 0x3110, symBinAddr: 0x100007280, symSize: 0x30 }
  - { offsetInCU: 0x13DE9, offset: 0x13DE9, size: 0x8, addend: 0x0, symName: __ZNSt3__18__iom_t5C2B7v160006Ei, symObjAddr: 0x3140, symBinAddr: 0x1000072B0, symSize: 0x20 }
  - { offsetInCU: 0x13E21, offset: 0x13E21, size: 0x8, addend: 0x0, symName: __ZNSt3__14pairINS_12basic_stringIcNS_11char_traitsIcEENS_9allocatorIcEEEEPPdEC2B7v160006IRNS0_IKS6_S8_EELPv0EEEOT_, symObjAddr: 0x3160, symBinAddr: 0x1000072D0, symSize: 0x50 }
  - { offsetInCU: 0x13E69, offset: 0x13E69, size: 0x8, addend: 0x0, symName: __ZNSt3__110__get_pairILm0EE3getB7v160006IKNS_12basic_stringIcNS_11char_traitsIcEENS_9allocatorIcEEEEPPdEERT_RNS_4pairISC_T0_EE, symObjAddr: 0x31F0, symBinAddr: 0x100007360, symSize: 0x10 }
  - { offsetInCU: 0x13E9F, offset: 0x13E9F, size: 0x8, addend: 0x0, symName: __ZNSt3__110__get_pairILm1EE3getB7v160006IKNS_12basic_stringIcNS_11char_traitsIcEENS_9allocatorIcEEEEPPdEERT0_RNS_4pairIT_SC_EE, symObjAddr: 0x3200, symBinAddr: 0x100007370, symSize: 0x20 }
  - { offsetInCU: 0x13ED5, offset: 0x13ED5, size: 0x8, addend: 0x0, symName: __ZNSt3__14pairINS_12basic_stringIcNS_11char_traitsIcEENS_9allocatorIcEEEEPPdED2Ev, symObjAddr: 0x3220, symBinAddr: 0x100007390, symSize: 0x20 }
  - { offsetInCU: 0x13F01, offset: 0x13F01, size: 0x8, addend: 0x0, symName: __ZNSt3__14pairINS_12basic_stringIcNS_11char_traitsIcEENS_9allocatorIcEEEEPdEC2B7v160006IRNS0_IKS6_S7_EELPv0EEEOT_, symObjAddr: 0x3240, symBinAddr: 0x1000073B0, symSize: 0x50 }
  - { offsetInCU: 0x13F49, offset: 0x13F49, size: 0x8, addend: 0x0, symName: __ZNSt3__110__get_pairILm0EE3getB7v160006IKNS_12basic_stringIcNS_11char_traitsIcEENS_9allocatorIcEEEEPdEERT_RNS_4pairISB_T0_EE, symObjAddr: 0x32D0, symBinAddr: 0x100007440, symSize: 0x10 }
  - { offsetInCU: 0x13F84, offset: 0x13F84, size: 0x8, addend: 0x0, symName: __ZNSt3__110__get_pairILm1EE3getB7v160006IKNS_12basic_stringIcNS_11char_traitsIcEENS_9allocatorIcEEEEPdEERT0_RNS_4pairIT_SB_EE, symObjAddr: 0x32E0, symBinAddr: 0x100007450, symSize: 0x20 }
  - { offsetInCU: 0x13FBA, offset: 0x13FBA, size: 0x8, addend: 0x0, symName: __ZNSt3__14pairINS_12basic_stringIcNS_11char_traitsIcEENS_9allocatorIcEEEEPdED2Ev, symObjAddr: 0x3300, symBinAddr: 0x100007470, symSize: 0x20 }
  - { offsetInCU: 0x13FE6, offset: 0x13FE6, size: 0x8, addend: 0x0, symName: __ZNSt3__114basic_ofstreamIcNS_11char_traitsIcEEED2Ev, symObjAddr: 0x3320, symBinAddr: 0x100007490, symSize: 0x60 }
  - { offsetInCU: 0x14020, offset: 0x14020, size: 0x8, addend: 0x0, symName: __ZTv0_n24_NSt3__114basic_ofstreamIcNS_11char_traitsIcEEED1Ev, symObjAddr: 0x3380, symBinAddr: 0x1000074F0, symSize: 0x20 }
  - { offsetInCU: 0x14037, offset: 0x14037, size: 0x8, addend: 0x0, symName: __ZNSt3__118basic_stringstreamIcNS_11char_traitsIcEENS_9allocatorIcEEED2Ev, symObjAddr: 0x33A0, symBinAddr: 0x100007510, symSize: 0x60 }
  - { offsetInCU: 0x14071, offset: 0x14071, size: 0x8, addend: 0x0, symName: __ZThn16_NSt3__118basic_stringstreamIcNS_11char_traitsIcEENS_9allocatorIcEEED1Ev, symObjAddr: 0x3400, symBinAddr: 0x100007570, symSize: 0x20 }
  - { offsetInCU: 0x14088, offset: 0x14088, size: 0x8, addend: 0x0, symName: __ZTv0_n24_NSt3__118basic_stringstreamIcNS_11char_traitsIcEENS_9allocatorIcEEED1Ev, symObjAddr: 0x3420, symBinAddr: 0x100007590, symSize: 0x20 }
  - { offsetInCU: 0x140A4, offset: 0x140A4, size: 0x8, addend: 0x0, symName: __ZNSt3__115basic_stringbufIcNS_11char_traitsIcEENS_9allocatorIcEEED1Ev, symObjAddr: 0x3440, symBinAddr: 0x1000075B0, symSize: 0x20 }
  - { offsetInCU: 0x140D1, offset: 0x140D1, size: 0x8, addend: 0x0, symName: __ZNSt3__115basic_stringbufIcNS_11char_traitsIcEENS_9allocatorIcEEED2Ev, symObjAddr: 0x3460, symBinAddr: 0x1000075D0, symSize: 0x40 }
  - { offsetInCU: 0x140FE, offset: 0x140FE, size: 0x8, addend: 0x0, symName: __ZNSt3__14pairIiPPdEC2B7v160006IRiRS2_LPv0EEEOT_OT0_, symObjAddr: 0x34A0, symBinAddr: 0x100007610, symSize: 0x30 }
  - { offsetInCU: 0x1415C, offset: 0x1415C, size: 0x8, addend: 0x0, symName: __ZNSt3__14pairIiPPdEC2B7v160006IiRS2_LPv0EEEOT_OT0_, symObjAddr: 0x34D0, symBinAddr: 0x100007640, symSize: 0x30 }
  - { offsetInCU: 0x141BA, offset: 0x141BA, size: 0x8, addend: 0x0, symName: __ZNKSt3__111__wrap_iterIPNS_4pairIiPPdEEE4baseB7v160006Ev, symObjAddr: 0x3540, symBinAddr: 0x1000076B0, symSize: 0x20 }
  - { offsetInCU: 0x141E0, offset: 0x141E0, size: 0x8, addend: 0x0, symName: __ZN5WorldD2Ev, symObjAddr: 0x3560, symBinAddr: 0x1000076D0, symSize: 0x10 }
  - { offsetInCU: 0x1420A, offset: 0x1420A, size: 0x8, addend: 0x0, symName: __ZNSt3__19basic_iosIcNS_11char_traitsIcEEEC2B7v160006Ev, symObjAddr: 0x3570, symBinAddr: 0x1000076E0, symSize: 0x40 }
  - { offsetInCU: 0x14234, offset: 0x14234, size: 0x8, addend: 0x0, symName: __ZNSt3__114basic_iostreamIcNS_11char_traitsIcEEEC2B7v160006EPNS_15basic_streambufIcS2_EE, symObjAddr: 0x35B0, symBinAddr: 0x100007720, symSize: 0xA0 }
  - { offsetInCU: 0x1427A, offset: 0x1427A, size: 0x8, addend: 0x0, symName: __ZNSt3__115basic_stringbufIcNS_11char_traitsIcEENS_9allocatorIcEEEC1B7v160006Ej, symObjAddr: 0x3650, symBinAddr: 0x1000077C0, symSize: 0x30 }
  - { offsetInCU: 0x142B2, offset: 0x142B2, size: 0x8, addend: 0x0, symName: __ZNSt3__18ios_baseC2B7v160006Ev, symObjAddr: 0x3680, symBinAddr: 0x1000077F0, symSize: 0x20 }
  - { offsetInCU: 0x142DC, offset: 0x142DC, size: 0x8, addend: 0x0, symName: __ZNSt3__113basic_istreamIcNS_11char_traitsIcEEEC2B7v160006EPNS_15basic_streambufIcS2_EE, symObjAddr: 0x36A0, symBinAddr: 0x100007810, symSize: 0x50 }
  - { offsetInCU: 0x14321, offset: 0x14321, size: 0x8, addend: 0x0, symName: __ZNSt3__113basic_ostreamIcNS_11char_traitsIcEEEC2B7v160006Ev, symObjAddr: 0x36F0, symBinAddr: 0x100007860, symSize: 0x30 }
  - { offsetInCU: 0x14358, offset: 0x14358, size: 0x8, addend: 0x0, symName: __ZNSt3__19basic_iosIcNS_11char_traitsIcEEE4initB7v160006EPNS_15basic_streambufIcS2_EE, symObjAddr: 0x3720, symBinAddr: 0x100007890, symSize: 0x50 }
  - { offsetInCU: 0x1438F, offset: 0x1438F, size: 0x8, addend: 0x0, symName: __ZNSt3__111char_traitsIcE3eofEv, symObjAddr: 0x3770, symBinAddr: 0x1000078E0, symSize: 0x10 }
  - { offsetInCU: 0x143A3, offset: 0x143A3, size: 0x8, addend: 0x0, symName: __ZNSt3__115basic_stringbufIcNS_11char_traitsIcEENS_9allocatorIcEEEC2B7v160006Ej, symObjAddr: 0x3780, symBinAddr: 0x1000078F0, symSize: 0x50 }
  - { offsetInCU: 0x143DB, offset: 0x143DB, size: 0x8, addend: 0x0, symName: __ZNSt3__112basic_stringIcNS_11char_traitsIcEENS_9allocatorIcEEEC1B7v160006Ev, symObjAddr: 0x37D0, symBinAddr: 0x100007940, symSize: 0x20 }
  - { offsetInCU: 0x14405, offset: 0x14405, size: 0x8, addend: 0x0, symName: __ZNSt3__112basic_stringIcNS_11char_traitsIcEENS_9allocatorIcEEEC2B7v160006Ev, symObjAddr: 0x37F0, symBinAddr: 0x100007960, symSize: 0x50 }
  - { offsetInCU: 0x14434, offset: 0x14434, size: 0x8, addend: 0x0, symName: __ZNSt3__117__compressed_pairINS_12basic_stringIcNS_11char_traitsIcEENS_9allocatorIcEEE5__repES5_EC1B7v160006INS_18__default_init_tagESA_EEOT_OT0_, symObjAddr: 0x3840, symBinAddr: 0x1000079B0, symSize: 0x30 }
  - { offsetInCU: 0x1448C, offset: 0x1448C, size: 0x8, addend: 0x0, symName: __ZNSt3__112basic_stringIcNS_11char_traitsIcEENS_9allocatorIcEEE14__default_initB7v160006Ev, symObjAddr: 0x3890, symBinAddr: 0x100007A00, symSize: 0x50 }
  - { offsetInCU: 0x144B2, offset: 0x144B2, size: 0x8, addend: 0x0, symName: __ZNSt3__117__compressed_pairINS_12basic_stringIcNS_11char_traitsIcEENS_9allocatorIcEEE5__repES5_EC2B7v160006INS_18__default_init_tagESA_EEOT_OT0_, symObjAddr: 0x38E0, symBinAddr: 0x100007A50, symSize: 0x30 }
  - { offsetInCU: 0x1450A, offset: 0x1450A, size: 0x8, addend: 0x0, symName: __ZNSt3__122__compressed_pair_elemINS_12basic_stringIcNS_11char_traitsIcEENS_9allocatorIcEEE5__repELi0ELb0EEC2B7v160006ENS_18__default_init_tagE, symObjAddr: 0x3910, symBinAddr: 0x100007A80, symSize: 0x10 }
  - { offsetInCU: 0x1453E, offset: 0x1453E, size: 0x8, addend: 0x0, symName: __ZNSt3__122__compressed_pair_elemINS_9allocatorIcEELi1ELb1EEC2B7v160006ENS_18__default_init_tagE, symObjAddr: 0x3920, symBinAddr: 0x100007A90, symSize: 0x20 }
  - { offsetInCU: 0x14572, offset: 0x14572, size: 0x8, addend: 0x0, symName: __ZNSt3__19allocatorIcEC2B7v160006Ev, symObjAddr: 0x3940, symBinAddr: 0x100007AB0, symSize: 0x20 }
  - { offsetInCU: 0x1459C, offset: 0x1459C, size: 0x8, addend: 0x0, symName: __ZNSt3__116__non_trivial_ifILb1ENS_9allocatorIcEEEC2B7v160006Ev, symObjAddr: 0x3960, symBinAddr: 0x100007AD0, symSize: 0x10 }
  - { offsetInCU: 0x145C6, offset: 0x145C6, size: 0x8, addend: 0x0, symName: __ZNSt3__117__compressed_pairINS_12basic_stringIcNS_11char_traitsIcEENS_9allocatorIcEEE5__repES5_E5firstB7v160006Ev, symObjAddr: 0x3970, symBinAddr: 0x100007AE0, symSize: 0x20 }
  - { offsetInCU: 0x145EC, offset: 0x145EC, size: 0x8, addend: 0x0, symName: __ZNSt3__122__compressed_pair_elemINS_12basic_stringIcNS_11char_traitsIcEENS_9allocatorIcEEE5__repELi0ELb0EE5__getB7v160006Ev, symObjAddr: 0x3990, symBinAddr: 0x100007B00, symSize: 0x10 }
  - { offsetInCU: 0x14612, offset: 0x14612, size: 0x8, addend: 0x0, symName: __ZNSt3__111char_traitsIcE6lengthEPKc, symObjAddr: 0x3B90, symBinAddr: 0x100007D00, symSize: 0x30 }
  - { offsetInCU: 0x14653, offset: 0x14653, size: 0x8, addend: 0x0, symName: __ZNKSt3__113basic_ostreamIcNS_11char_traitsIcEEE6sentrycvbB7v160006Ev, symObjAddr: 0x3BC0, symBinAddr: 0x100007D30, symSize: 0x20 }
  - { offsetInCU: 0x14679, offset: 0x14679, size: 0x8, addend: 0x0, symName: __ZNSt3__119ostreambuf_iteratorIcNS_11char_traitsIcEEEC1B7v160006ERNS_13basic_ostreamIcS2_EE, symObjAddr: 0x3E00, symBinAddr: 0x100007F70, symSize: 0x30 }
  - { offsetInCU: 0x146B1, offset: 0x146B1, size: 0x8, addend: 0x0, symName: __ZNKSt3__18ios_base5flagsB7v160006Ev, symObjAddr: 0x3E30, symBinAddr: 0x100007FA0, symSize: 0x20 }
  - { offsetInCU: 0x146D9, offset: 0x146D9, size: 0x8, addend: 0x0, symName: __ZNKSt3__19basic_iosIcNS_11char_traitsIcEEE4fillB7v160006Ev, symObjAddr: 0x3E50, symBinAddr: 0x100007FC0, symSize: 0x70 }
  - { offsetInCU: 0x14701, offset: 0x14701, size: 0x8, addend: 0x0, symName: __ZNKSt3__119ostreambuf_iteratorIcNS_11char_traitsIcEEE6failedB7v160006Ev, symObjAddr: 0x3EC0, symBinAddr: 0x100008030, symSize: 0x20 }
  - { offsetInCU: 0x14727, offset: 0x14727, size: 0x8, addend: 0x0, symName: __ZNSt3__19basic_iosIcNS_11char_traitsIcEEE8setstateB7v160006Ej, symObjAddr: 0x3EE0, symBinAddr: 0x100008050, symSize: 0x30 }
  - { offsetInCU: 0x1475C, offset: 0x1475C, size: 0x8, addend: 0x0, symName: __ZNKSt3__18ios_base5widthB7v160006Ev, symObjAddr: 0x3F10, symBinAddr: 0x100008080, symSize: 0x20 }
  - { offsetInCU: 0x14784, offset: 0x14784, size: 0x8, addend: 0x0, symName: __ZNSt3__115basic_streambufIcNS_11char_traitsIcEEE5sputnB7v160006EPKcl, symObjAddr: 0x3F30, symBinAddr: 0x1000080A0, symSize: 0x30 }
  - { offsetInCU: 0x147C6, offset: 0x147C6, size: 0x8, addend: 0x0, symName: __ZNSt3__112basic_stringIcNS_11char_traitsIcEENS_9allocatorIcEEEC1B7v160006Emc, symObjAddr: 0x3F60, symBinAddr: 0x1000080D0, symSize: 0x30 }
  - { offsetInCU: 0x1480E, offset: 0x1480E, size: 0x8, addend: 0x0, symName: __ZNKSt3__112basic_stringIcNS_11char_traitsIcEENS_9allocatorIcEEE4dataB7v160006Ev, symObjAddr: 0x3F90, symBinAddr: 0x100008100, symSize: 0x30 }
  - { offsetInCU: 0x14834, offset: 0x14834, size: 0x8, addend: 0x0, symName: __ZNSt3__18ios_base5widthB7v160006El, symObjAddr: 0x3FC0, symBinAddr: 0x100008130, symSize: 0x30 }
  - { offsetInCU: 0x1487A, offset: 0x1487A, size: 0x8, addend: 0x0, symName: __ZNSt3__112basic_stringIcNS_11char_traitsIcEENS_9allocatorIcEEEC2B7v160006Emc, symObjAddr: 0x3FF0, symBinAddr: 0x100008160, symSize: 0x50 }
  - { offsetInCU: 0x148C2, offset: 0x148C2, size: 0x8, addend: 0x0, symName: __ZNKSt3__112basic_stringIcNS_11char_traitsIcEENS_9allocatorIcEEE13__get_pointerB7v160006Ev, symObjAddr: 0x4050, symBinAddr: 0x1000081C0, symSize: 0x50 }
  - { offsetInCU: 0x148E8, offset: 0x148E8, size: 0x8, addend: 0x0, symName: __ZNKSt3__112basic_stringIcNS_11char_traitsIcEENS_9allocatorIcEEE9__is_longB7v160006Ev, symObjAddr: 0x40A0, symBinAddr: 0x100008210, symSize: 0x30 }
  - { offsetInCU: 0x1490E, offset: 0x1490E, size: 0x8, addend: 0x0, symName: __ZNKSt3__112basic_stringIcNS_11char_traitsIcEENS_9allocatorIcEEE18__get_long_pointerB7v160006Ev, symObjAddr: 0x40D0, symBinAddr: 0x100008240, symSize: 0x20 }
  - { offsetInCU: 0x14934, offset: 0x14934, size: 0x8, addend: 0x0, symName: __ZNKSt3__112basic_stringIcNS_11char_traitsIcEENS_9allocatorIcEEE19__get_short_pointerB7v160006Ev, symObjAddr: 0x40F0, symBinAddr: 0x100008260, symSize: 0x30 }
  - { offsetInCU: 0x1495A, offset: 0x1495A, size: 0x8, addend: 0x0, symName: __ZNKSt3__117__compressed_pairINS_12basic_stringIcNS_11char_traitsIcEENS_9allocatorIcEEE5__repES5_E5firstB7v160006Ev, symObjAddr: 0x4120, symBinAddr: 0x100008290, symSize: 0x20 }
  - { offsetInCU: 0x14980, offset: 0x14980, size: 0x8, addend: 0x0, symName: __ZNKSt3__122__compressed_pair_elemINS_12basic_stringIcNS_11char_traitsIcEENS_9allocatorIcEEE5__repELi0ELb0EE5__getB7v160006Ev, symObjAddr: 0x4140, symBinAddr: 0x1000082B0, symSize: 0x10 }
  - { offsetInCU: 0x149A6, offset: 0x149A6, size: 0x8, addend: 0x0, symName: __ZNSt3__114pointer_traitsIPKcE10pointer_toB7v160006ERS1_, symObjAddr: 0x4150, symBinAddr: 0x1000082C0, symSize: 0x10 }
  - { offsetInCU: 0x149C9, offset: 0x149C9, size: 0x8, addend: 0x0, symName: __ZNSt3__119ostreambuf_iteratorIcNS_11char_traitsIcEEEC2B7v160006ERNS_13basic_ostreamIcS2_EE, symObjAddr: 0x4160, symBinAddr: 0x1000082D0, symSize: 0x50 }
  - { offsetInCU: 0x14A01, offset: 0x14A01, size: 0x8, addend: 0x0, symName: __ZNKSt3__19basic_iosIcNS_11char_traitsIcEEE5rdbufB7v160006Ev, symObjAddr: 0x41B0, symBinAddr: 0x100008320, symSize: 0x20 }
  - { offsetInCU: 0x14A29, offset: 0x14A29, size: 0x8, addend: 0x0, symName: __ZNKSt3__18ios_base5rdbufB7v160006Ev, symObjAddr: 0x41D0, symBinAddr: 0x100008340, symSize: 0x20 }
  - { offsetInCU: 0x14A4F, offset: 0x14A4F, size: 0x8, addend: 0x0, symName: __ZNSt3__111char_traitsIcE11eq_int_typeEii, symObjAddr: 0x41F0, symBinAddr: 0x100008360, symSize: 0x20 }
  - { offsetInCU: 0x14A80, offset: 0x14A80, size: 0x8, addend: 0x0, symName: __ZNKSt3__19basic_iosIcNS_11char_traitsIcEEE5widenB7v160006Ec, symObjAddr: 0x4210, symBinAddr: 0x100008380, symSize: 0x80 }
  - { offsetInCU: 0x14AEE, offset: 0x14AEE, size: 0x8, addend: 0x0, symName: __ZNKSt3__15ctypeIcE5widenB7v160006Ec, symObjAddr: 0x42C0, symBinAddr: 0x100008430, symSize: 0x30 }
  - { offsetInCU: 0x14B23, offset: 0x14B23, size: 0x8, addend: 0x0, symName: __ZNSt3__18ios_base8setstateB7v160006Ej, symObjAddr: 0x42F0, symBinAddr: 0x100008460, symSize: 0x30 }
  - { offsetInCU: 0x14B5A, offset: 0x14B5A, size: 0x8, addend: 0x0, symName: __ZNSt3__18__iom_t4IcEC1B7v160006Ec, symObjAddr: 0x4340, symBinAddr: 0x1000084B0, symSize: 0x30 }
  - { offsetInCU: 0x14B92, offset: 0x14B92, size: 0x8, addend: 0x0, symName: __ZNSt3__18__iom_t4IcEC2B7v160006Ec, symObjAddr: 0x4370, symBinAddr: 0x1000084E0, symSize: 0x20 }
  - { offsetInCU: 0x14BCA, offset: 0x14BCA, size: 0x8, addend: 0x0, symName: __ZNSt3__19basic_iosIcNS_11char_traitsIcEEE4fillB7v160006Ec, symObjAddr: 0x4390, symBinAddr: 0x100008500, symSize: 0x80 }
  - { offsetInCU: 0x14C10, offset: 0x14C10, size: 0x8, addend: 0x0, symName: __ZNSt3__113basic_ostreamIcNS_11char_traitsIcEEEC2B7v160006EPNS_15basic_streambufIcS2_EE, symObjAddr: 0x4410, symBinAddr: 0x100008580, symSize: 0x50 }
  - { offsetInCU: 0x14C55, offset: 0x14C55, size: 0x8, addend: 0x0, symName: __ZNSt3__113basic_filebufIcNS_11char_traitsIcEEE4openERKNS_12basic_stringIcS2_NS_9allocatorIcEEEEj, symObjAddr: 0x4460, symBinAddr: 0x1000085D0, symSize: 0x40 }
  - { offsetInCU: 0x14C99, offset: 0x14C99, size: 0x8, addend: 0x0, symName: __ZNKSt3__112basic_stringIcNS_11char_traitsIcEENS_9allocatorIcEEE5c_strB7v160006Ev, symObjAddr: 0x44A0, symBinAddr: 0x100008610, symSize: 0x20 }
  - { offsetInCU: 0x14CBF, offset: 0x14CBF, size: 0x8, addend: 0x0, symName: __ZNSt3__18ios_base9precisionB7v160006El, symObjAddr: 0x44C0, symBinAddr: 0x100008630, symSize: 0x30 }
  - { offsetInCU: 0x14D05, offset: 0x14D05, size: 0x8, addend: 0x0, symName: __ZNSt3__16__treeINS_12__value_typeINS_12basic_stringIcNS_11char_traitsIcEENS_9allocatorIcEEEEPPdEENS_19__map_value_compareIS7_SA_NS_4lessIS7_EELb1EEENS5_ISA_EEE5beginB7v160006Ev, symObjAddr: 0x44F0, symBinAddr: 0x100008660, symSize: 0x30 }
  - { offsetInCU: 0x14D2B, offset: 0x14D2B, size: 0x8, addend: 0x0, symName: __ZNSt3__114__map_iteratorINS_15__tree_iteratorINS_12__value_typeINS_12basic_stringIcNS_11char_traitsIcEENS_9allocatorIcEEEEPPdEEPNS_11__tree_nodeISB_PvEElEEEC1B7v160006ESG_, symObjAddr: 0x4520, symBinAddr: 0x100008690, symSize: 0x30 }
  - { offsetInCU: 0x14D64, offset: 0x14D64, size: 0x8, addend: 0x0, symName: __ZNSt3__16__treeINS_12__value_typeINS_12basic_stringIcNS_11char_traitsIcEENS_9allocatorIcEEEEPPdEENS_19__map_value_compareIS7_SA_NS_4lessIS7_EELb1EEENS5_ISA_EEE12__begin_nodeB7v160006Ev, symObjAddr: 0x4550, symBinAddr: 0x1000086C0, symSize: 0x10 }
  - { offsetInCU: 0x14D8A, offset: 0x14D8A, size: 0x8, addend: 0x0, symName: __ZNSt3__115__tree_iteratorINS_12__value_typeINS_12basic_stringIcNS_11char_traitsIcEENS_9allocatorIcEEEEPPdEEPNS_11__tree_nodeISA_PvEElEC1B7v160006EPNS_15__tree_end_nodeIPNS_16__tree_node_baseISC_EEEE, symObjAddr: 0x4560, symBinAddr: 0x1000086D0, symSize: 0x30 }
  - { offsetInCU: 0x14DC3, offset: 0x14DC3, size: 0x8, addend: 0x0, symName: __ZNSt3__115__tree_iteratorINS_12__value_typeINS_12basic_stringIcNS_11char_traitsIcEENS_9allocatorIcEEEEPPdEEPNS_11__tree_nodeISA_PvEElEC2B7v160006EPNS_15__tree_end_nodeIPNS_16__tree_node_baseISC_EEEE, symObjAddr: 0x4590, symBinAddr: 0x100008700, symSize: 0x20 }
  - { offsetInCU: 0x14DFC, offset: 0x14DFC, size: 0x8, addend: 0x0, symName: __ZNSt3__114__map_iteratorINS_15__tree_iteratorINS_12__value_typeINS_12basic_stringIcNS_11char_traitsIcEENS_9allocatorIcEEEEPPdEEPNS_11__tree_nodeISB_PvEElEEEC2B7v160006ESG_, symObjAddr: 0x45B0, symBinAddr: 0x100008720, symSize: 0x20 }
  - { offsetInCU: 0x14E35, offset: 0x14E35, size: 0x8, addend: 0x0, symName: __ZNSt3__16__treeINS_12__value_typeINS_12basic_stringIcNS_11char_traitsIcEENS_9allocatorIcEEEEPPdEENS_19__map_value_compareIS7_SA_NS_4lessIS7_EELb1EEENS5_ISA_EEE3endB7v160006Ev, symObjAddr: 0x45D0, symBinAddr: 0x100008740, symSize: 0x30 }
  - { offsetInCU: 0x14E5B, offset: 0x14E5B, size: 0x8, addend: 0x0, symName: __ZNSt3__16__treeINS_12__value_typeINS_12basic_stringIcNS_11char_traitsIcEENS_9allocatorIcEEEEPPdEENS_19__map_value_compareIS7_SA_NS_4lessIS7_EELb1EEENS5_ISA_EEE10__end_nodeB7v160006Ev, symObjAddr: 0x4600, symBinAddr: 0x100008770, symSize: 0x30 }
  - { offsetInCU: 0x14E81, offset: 0x14E81, size: 0x8, addend: 0x0, symName: __ZNSt3__114pointer_traitsIPNS_15__tree_end_nodeIPNS_16__tree_node_baseIPvEEEEE10pointer_toB7v160006ERS6_, symObjAddr: 0x4630, symBinAddr: 0x1000087A0, symSize: 0x10 }
  - { offsetInCU: 0x14EA4, offset: 0x14EA4, size: 0x8, addend: 0x0, symName: __ZNSt3__117__compressed_pairINS_15__tree_end_nodeIPNS_16__tree_node_baseIPvEEEENS_9allocatorINS_11__tree_nodeINS_12__value_typeINS_12basic_stringIcNS_11char_traitsIcEENS7_IcEEEEPPdEES3_EEEEE5firstB7v160006Ev, symObjAddr: 0x4640, symBinAddr: 0x1000087B0, symSize: 0x20 }
  - { offsetInCU: 0x14ECA, offset: 0x14ECA, size: 0x8, addend: 0x0, symName: __ZNSt3__122__compressed_pair_elemINS_15__tree_end_nodeIPNS_16__tree_node_baseIPvEEEELi0ELb0EE5__getB7v160006Ev, symObjAddr: 0x4660, symBinAddr: 0x1000087D0, symSize: 0x10 }
  - { offsetInCU: 0x14EF0, offset: 0x14EF0, size: 0x8, addend: 0x0, symName: __ZNSt3__115__tree_iteratorINS_12__value_typeINS_12basic_stringIcNS_11char_traitsIcEENS_9allocatorIcEEEEPPdEEPNS_11__tree_nodeISA_PvEElEppB7v160006Ev, symObjAddr: 0x46D0, symBinAddr: 0x100008840, symSize: 0x30 }
  - { offsetInCU: 0x14F16, offset: 0x14F16, size: 0x8, addend: 0x0, symName: __ZNKSt3__116__tree_node_baseIPvE15__parent_unsafeB7v160006Ev, symObjAddr: 0x47F0, symBinAddr: 0x100008960, symSize: 0x20 }
  - { offsetInCU: 0x14F3C, offset: 0x14F3C, size: 0x8, addend: 0x0, symName: __ZNKSt3__115__tree_iteratorINS_12__value_typeINS_12basic_stringIcNS_11char_traitsIcEENS_9allocatorIcEEEEPPdEEPNS_11__tree_nodeISA_PvEElEptB7v160006Ev, symObjAddr: 0x4810, symBinAddr: 0x100008980, symSize: 0x30 }
  - { offsetInCU: 0x14F62, offset: 0x14F62, size: 0x8, addend: 0x0, symName: __ZNSt3__112__value_typeINS_12basic_stringIcNS_11char_traitsIcEENS_9allocatorIcEEEEPPdE11__get_valueB7v160006Ev, symObjAddr: 0x4840, symBinAddr: 0x1000089B0, symSize: 0x10 }
  - { offsetInCU: 0x14F88, offset: 0x14F88, size: 0x8, addend: 0x0, symName: __ZNSt3__114pointer_traitsIPNS_12__value_typeINS_12basic_stringIcNS_11char_traitsIcEENS_9allocatorIcEEEEPPdEEE10pointer_toB7v160006ERSA_, symObjAddr: 0x4850, symBinAddr: 0x1000089C0, symSize: 0x10 }
  - { offsetInCU: 0x14FAB, offset: 0x14FAB, size: 0x8, addend: 0x0, symName: __ZNKSt3__115__tree_iteratorINS_12__value_typeINS_12basic_stringIcNS_11char_traitsIcEENS_9allocatorIcEEEEPPdEEPNS_11__tree_nodeISA_PvEElE8__get_npB7v160006Ev, symObjAddr: 0x4860, symBinAddr: 0x1000089D0, symSize: 0x20 }
  - { offsetInCU: 0x14FD1, offset: 0x14FD1, size: 0x8, addend: 0x0, symName: __ZNKSt3__112basic_stringIcNS_11char_traitsIcEENS_9allocatorIcEEE4sizeB7v160006Ev, symObjAddr: 0x4880, symBinAddr: 0x1000089F0, symSize: 0x50 }
  - { offsetInCU: 0x14FF7, offset: 0x14FF7, size: 0x8, addend: 0x0, symName: __ZNKSt3__112basic_stringIcNS_11char_traitsIcEENS_9allocatorIcEEE15__get_long_sizeB7v160006Ev, symObjAddr: 0x48D0, symBinAddr: 0x100008A40, symSize: 0x20 }
  - { offsetInCU: 0x1501D, offset: 0x1501D, size: 0x8, addend: 0x0, symName: __ZNKSt3__112basic_stringIcNS_11char_traitsIcEENS_9allocatorIcEEE16__get_short_sizeB7v160006Ev, symObjAddr: 0x48F0, symBinAddr: 0x100008A60, symSize: 0x30 }
  - { offsetInCU: 0x15043, offset: 0x15043, size: 0x8, addend: 0x0, symName: __ZNSt3__16__treeINS_12__value_typeINS_12basic_stringIcNS_11char_traitsIcEENS_9allocatorIcEEEEPdEENS_19__map_value_compareIS7_S9_NS_4lessIS7_EELb1EEENS5_IS9_EEE5beginB7v160006Ev, symObjAddr: 0x4920, symBinAddr: 0x100008A90, symSize: 0x30 }
  - { offsetInCU: 0x15069, offset: 0x15069, size: 0x8, addend: 0x0, symName: __ZNSt3__114__map_iteratorINS_15__tree_iteratorINS_12__value_typeINS_12basic_stringIcNS_11char_traitsIcEENS_9allocatorIcEEEEPdEEPNS_11__tree_nodeISA_PvEElEEEC1B7v160006ESF_, symObjAddr: 0x4950, symBinAddr: 0x100008AC0, symSize: 0x30 }
  - { offsetInCU: 0x150A2, offset: 0x150A2, size: 0x8, addend: 0x0, symName: __ZNSt3__16__treeINS_12__value_typeINS_12basic_stringIcNS_11char_traitsIcEENS_9allocatorIcEEEEPdEENS_19__map_value_compareIS7_S9_NS_4lessIS7_EELb1EEENS5_IS9_EEE12__begin_nodeB7v160006Ev, symObjAddr: 0x4980, symBinAddr: 0x100008AF0, symSize: 0x10 }
  - { offsetInCU: 0x150C8, offset: 0x150C8, size: 0x8, addend: 0x0, symName: __ZNSt3__115__tree_iteratorINS_12__value_typeINS_12basic_stringIcNS_11char_traitsIcEENS_9allocatorIcEEEEPdEEPNS_11__tree_nodeIS9_PvEElEC1B7v160006EPNS_15__tree_end_nodeIPNS_16__tree_node_baseISB_EEEE, symObjAddr: 0x4990, symBinAddr: 0x100008B00, symSize: 0x30 }
  - { offsetInCU: 0x15101, offset: 0x15101, size: 0x8, addend: 0x0, symName: __ZNSt3__115__tree_iteratorINS_12__value_typeINS_12basic_stringIcNS_11char_traitsIcEENS_9allocatorIcEEEEPdEEPNS_11__tree_nodeIS9_PvEElEC2B7v160006EPNS_15__tree_end_nodeIPNS_16__tree_node_baseISB_EEEE, symObjAddr: 0x49C0, symBinAddr: 0x100008B30, symSize: 0x20 }
  - { offsetInCU: 0x1513A, offset: 0x1513A, size: 0x8, addend: 0x0, symName: __ZNSt3__114__map_iteratorINS_15__tree_iteratorINS_12__value_typeINS_12basic_stringIcNS_11char_traitsIcEENS_9allocatorIcEEEEPdEEPNS_11__tree_nodeISA_PvEElEEEC2B7v160006ESF_, symObjAddr: 0x49E0, symBinAddr: 0x100008B50, symSize: 0x20 }
  - { offsetInCU: 0x15173, offset: 0x15173, size: 0x8, addend: 0x0, symName: __ZNSt3__16__treeINS_12__value_typeINS_12basic_stringIcNS_11char_traitsIcEENS_9allocatorIcEEEEPdEENS_19__map_value_compareIS7_S9_NS_4lessIS7_EELb1EEENS5_IS9_EEE3endB7v160006Ev, symObjAddr: 0x4A00, symBinAddr: 0x100008B70, symSize: 0x30 }
  - { offsetInCU: 0x15199, offset: 0x15199, size: 0x8, addend: 0x0, symName: __ZNSt3__16__treeINS_12__value_typeINS_12basic_stringIcNS_11char_traitsIcEENS_9allocatorIcEEEEPdEENS_19__map_value_compareIS7_S9_NS_4lessIS7_EELb1EEENS5_IS9_EEE10__end_nodeB7v160006Ev, symObjAddr: 0x4A30, symBinAddr: 0x100008BA0, symSize: 0x30 }
  - { offsetInCU: 0x151BF, offset: 0x151BF, size: 0x8, addend: 0x0, symName: __ZNSt3__117__compressed_pairINS_15__tree_end_nodeIPNS_16__tree_node_baseIPvEEEENS_9allocatorINS_11__tree_nodeINS_12__value_typeINS_12basic_stringIcNS_11char_traitsIcEENS7_IcEEEEPdEES3_EEEEE5firstB7v160006Ev, symObjAddr: 0x4A60, symBinAddr: 0x100008BD0, symSize: 0x20 }
  - { offsetInCU: 0x151E5, offset: 0x151E5, size: 0x8, addend: 0x0, symName: __ZNSt3__115__tree_iteratorINS_12__value_typeINS_12basic_stringIcNS_11char_traitsIcEENS_9allocatorIcEEEEPdEEPNS_11__tree_nodeIS9_PvEElEppB7v160006Ev, symObjAddr: 0x4AE0, symBinAddr: 0x100008C50, symSize: 0x30 }
  - { offsetInCU: 0x1520B, offset: 0x1520B, size: 0x8, addend: 0x0, symName: __ZNKSt3__115__tree_iteratorINS_12__value_typeINS_12basic_stringIcNS_11char_traitsIcEENS_9allocatorIcEEEEPdEEPNS_11__tree_nodeIS9_PvEElEptB7v160006Ev, symObjAddr: 0x4B10, symBinAddr: 0x100008C80, symSize: 0x30 }
  - { offsetInCU: 0x15231, offset: 0x15231, size: 0x8, addend: 0x0, symName: __ZNSt3__112__value_typeINS_12basic_stringIcNS_11char_traitsIcEENS_9allocatorIcEEEEPdE11__get_valueB7v160006Ev, symObjAddr: 0x4B40, symBinAddr: 0x100008CB0, symSize: 0x10 }
  - { offsetInCU: 0x15257, offset: 0x15257, size: 0x8, addend: 0x0, symName: __ZNSt3__114pointer_traitsIPNS_12__value_typeINS_12basic_stringIcNS_11char_traitsIcEENS_9allocatorIcEEEEPdEEE10pointer_toB7v160006ERS9_, symObjAddr: 0x4B50, symBinAddr: 0x100008CC0, symSize: 0x10 }
  - { offsetInCU: 0x1527A, offset: 0x1527A, size: 0x8, addend: 0x0, symName: __ZNKSt3__115__tree_iteratorINS_12__value_typeINS_12basic_stringIcNS_11char_traitsIcEENS_9allocatorIcEEEEPdEEPNS_11__tree_nodeIS9_PvEElE8__get_npB7v160006Ev, symObjAddr: 0x4B60, symBinAddr: 0x100008CD0, symSize: 0x20 }
  - { offsetInCU: 0x152A0, offset: 0x152A0, size: 0x8, addend: 0x0, symName: __ZNSt3__16vectorINS_4pairIiPPdEENS_9allocatorIS4_EEEC2B7v160006Ev, symObjAddr: 0x4B80, symBinAddr: 0x100008CF0, symSize: 0x60 }
  - { offsetInCU: 0x152CF, offset: 0x152CF, size: 0x8, addend: 0x0, symName: __ZNSt3__117__compressed_pairIPNS_4pairIiPPdEENS_9allocatorIS4_EEEC1B7v160006IDnNS_18__default_init_tagEEEOT_OT0_, symObjAddr: 0x4BE0, symBinAddr: 0x100008D50, symSize: 0x30 }
  - { offsetInCU: 0x15327, offset: 0x15327, size: 0x8, addend: 0x0, symName: __ZNSt3__117__compressed_pairIPNS_4pairIiPPdEENS_9allocatorIS4_EEEC2B7v160006IDnNS_18__default_init_tagEEEOT_OT0_, symObjAddr: 0x4C20, symBinAddr: 0x100008D90, symSize: 0x40 }
  - { offsetInCU: 0x1537F, offset: 0x1537F, size: 0x8, addend: 0x0, symName: __ZNSt3__122__compressed_pair_elemIPNS_4pairIiPPdEELi0ELb0EEC2B7v160006IDnvEEOT_, symObjAddr: 0x4C60, symBinAddr: 0x100008DD0, symSize: 0x20 }
  - { offsetInCU: 0x153C1, offset: 0x153C1, size: 0x8, addend: 0x0, symName: __ZNSt3__122__compressed_pair_elemINS_9allocatorINS_4pairIiPPdEEEELi1ELb1EEC2B7v160006ENS_18__default_init_tagE, symObjAddr: 0x4C80, symBinAddr: 0x100008DF0, symSize: 0x20 }
  - { offsetInCU: 0x153F5, offset: 0x153F5, size: 0x8, addend: 0x0, symName: __ZNSt3__19allocatorINS_4pairIiPPdEEEC2B7v160006Ev, symObjAddr: 0x4CA0, symBinAddr: 0x100008E10, symSize: 0x20 }
  - { offsetInCU: 0x1541F, offset: 0x1541F, size: 0x8, addend: 0x0, symName: __ZNSt3__116__non_trivial_ifILb1ENS_9allocatorINS_4pairIiPPdEEEEEC2B7v160006Ev, symObjAddr: 0x4CC0, symBinAddr: 0x100008E30, symSize: 0x10 }
  - { offsetInCU: 0x15449, offset: 0x15449, size: 0x8, addend: 0x0, symName: __ZNSt3__16vectorINS_4pairIiPPdEENS_9allocatorIS4_EEED2B7v160006Ev, symObjAddr: 0x4CD0, symBinAddr: 0x100008E40, symSize: 0x40 }
  - { offsetInCU: 0x15473, offset: 0x15473, size: 0x8, addend: 0x0, symName: __ZNSt3__16vectorINS_4pairIiPPdEENS_9allocatorIS4_EEE16__destroy_vectorC1ERS7_, symObjAddr: 0x4D10, symBinAddr: 0x100008E80, symSize: 0x30 }
  - { offsetInCU: 0x154AC, offset: 0x154AC, size: 0x8, addend: 0x0, symName: __ZNSt3__16vectorINS_4pairIiPPdEENS_9allocatorIS4_EEE16__destroy_vectorclB7v160006Ev, symObjAddr: 0x4D40, symBinAddr: 0x100008EB0, symSize: 0x90 }
  - { offsetInCU: 0x154D2, offset: 0x154D2, size: 0x8, addend: 0x0, symName: __ZNSt3__16vectorINS_4pairIiPPdEENS_9allocatorIS4_EEE16__destroy_vectorC2ERS7_, symObjAddr: 0x4DD0, symBinAddr: 0x100008F40, symSize: 0x20 }
  - { offsetInCU: 0x1550B, offset: 0x1550B, size: 0x8, addend: 0x0, symName: __ZNKSt3__16vectorINS_4pairIiPPdEENS_9allocatorIS4_EEE17__annotate_deleteB7v160006Ev, symObjAddr: 0x4DF0, symBinAddr: 0x100008F60, symSize: 0xB0 }
  - { offsetInCU: 0x15531, offset: 0x15531, size: 0x8, addend: 0x0, symName: __ZNSt3__16vectorINS_4pairIiPPdEENS_9allocatorIS4_EEE7__clearB7v160006Ev, symObjAddr: 0x4EB0, symBinAddr: 0x100009020, symSize: 0x20 }
  - { offsetInCU: 0x15557, offset: 0x15557, size: 0x8, addend: 0x0, symName: __ZNSt3__116allocator_traitsINS_9allocatorINS_4pairIiPPdEEEEE10deallocateB7v160006ERS6_PS5_m, symObjAddr: 0x4ED0, symBinAddr: 0x100009040, symSize: 0x30 }
  - { offsetInCU: 0x15599, offset: 0x15599, size: 0x8, addend: 0x0, symName: __ZNSt3__16vectorINS_4pairIiPPdEENS_9allocatorIS4_EEE7__allocB7v160006Ev, symObjAddr: 0x4F00, symBinAddr: 0x100009070, symSize: 0x20 }
  - { offsetInCU: 0x155BF, offset: 0x155BF, size: 0x8, addend: 0x0, symName: __ZNKSt3__16vectorINS_4pairIiPPdEENS_9allocatorIS4_EEE8capacityB7v160006Ev, symObjAddr: 0x4F20, symBinAddr: 0x100009090, symSize: 0x30 }
  - { offsetInCU: 0x155E5, offset: 0x155E5, size: 0x8, addend: 0x0, symName: __ZNKSt3__16vectorINS_4pairIiPPdEENS_9allocatorIS4_EEE31__annotate_contiguous_containerB7v160006EPKvS9_S9_S9_, symObjAddr: 0x4F50, symBinAddr: 0x1000090C0, symSize: 0x20 }
  - { offsetInCU: 0x1563B, offset: 0x1563B, size: 0x8, addend: 0x0, symName: __ZNKSt3__16vectorINS_4pairIiPPdEENS_9allocatorIS4_EEE4dataB7v160006Ev, symObjAddr: 0x4F70, symBinAddr: 0x1000090E0, symSize: 0x20 }
  - { offsetInCU: 0x15661, offset: 0x15661, size: 0x8, addend: 0x0, symName: __ZNKSt3__16vectorINS_4pairIiPPdEENS_9allocatorIS4_EEE4sizeB7v160006Ev, symObjAddr: 0x4F90, symBinAddr: 0x100009100, symSize: 0x20 }
  - { offsetInCU: 0x15687, offset: 0x15687, size: 0x8, addend: 0x0, symName: __ZNSt3__16vectorINS_4pairIiPPdEENS_9allocatorIS4_EEE22__base_destruct_at_endB7v160006EPS4_, symObjAddr: 0x4FC0, symBinAddr: 0x100009130, symSize: 0x80 }
  - { offsetInCU: 0x156CB, offset: 0x156CB, size: 0x8, addend: 0x0, symName: __ZNSt3__116allocator_traitsINS_9allocatorINS_4pairIiPPdEEEEE7destroyB7v160006IS5_vEEvRS6_PT_, symObjAddr: 0x5040, symBinAddr: 0x1000091B0, symSize: 0x30 }
  - { offsetInCU: 0x15708, offset: 0x15708, size: 0x8, addend: 0x0, symName: __ZNSt3__19allocatorINS_4pairIiPPdEEE7destroyB7v160006EPS4_, symObjAddr: 0x5070, symBinAddr: 0x1000091E0, symSize: 0x10 }
  - { offsetInCU: 0x1573C, offset: 0x1573C, size: 0x8, addend: 0x0, symName: __ZNSt3__19allocatorINS_4pairIiPPdEEE10deallocateB7v160006EPS4_m, symObjAddr: 0x5080, symBinAddr: 0x1000091F0, symSize: 0x40 }
  - { offsetInCU: 0x1577E, offset: 0x1577E, size: 0x8, addend: 0x0, symName: __ZNSt3__117__compressed_pairIPNS_4pairIiPPdEENS_9allocatorIS4_EEE6secondB7v160006Ev, symObjAddr: 0x5130, symBinAddr: 0x1000092A0, symSize: 0x20 }
  - { offsetInCU: 0x157A4, offset: 0x157A4, size: 0x8, addend: 0x0, symName: __ZNSt3__122__compressed_pair_elemINS_9allocatorINS_4pairIiPPdEEEELi1ELb1EE5__getB7v160006Ev, symObjAddr: 0x5150, symBinAddr: 0x1000092C0, symSize: 0x10 }
  - { offsetInCU: 0x157CA, offset: 0x157CA, size: 0x8, addend: 0x0, symName: __ZNKSt3__16vectorINS_4pairIiPPdEENS_9allocatorIS4_EEE9__end_capB7v160006Ev, symObjAddr: 0x5160, symBinAddr: 0x1000092D0, symSize: 0x20 }
  - { offsetInCU: 0x157F0, offset: 0x157F0, size: 0x8, addend: 0x0, symName: __ZNKSt3__117__compressed_pairIPNS_4pairIiPPdEENS_9allocatorIS4_EEE5firstB7v160006Ev, symObjAddr: 0x5180, symBinAddr: 0x1000092F0, symSize: 0x20 }
  - { offsetInCU: 0x15816, offset: 0x15816, size: 0x8, addend: 0x0, symName: __ZNKSt3__122__compressed_pair_elemIPNS_4pairIiPPdEELi0ELb0EE5__getB7v160006Ev, symObjAddr: 0x51A0, symBinAddr: 0x100009310, symSize: 0x10 }
  - { offsetInCU: 0x1583C, offset: 0x1583C, size: 0x8, addend: 0x0, symName: __ZNSt3__16vectorINS_4pairIiPPdEENS_9allocatorIS4_EEE9__end_capB7v160006Ev, symObjAddr: 0x51B0, symBinAddr: 0x100009320, symSize: 0x20 }
  - { offsetInCU: 0x15862, offset: 0x15862, size: 0x8, addend: 0x0, symName: __ZNSt3__16vectorINS_4pairIiPPdEENS_9allocatorIS4_EEE22__construct_one_at_endB7v160006IJS4_EEEvDpOT_, symObjAddr: 0x51D0, symBinAddr: 0x100009340, symSize: 0x90 }
  - { offsetInCU: 0x158B1, offset: 0x158B1, size: 0x8, addend: 0x0, symName: __ZNSt3__16vectorINS_4pairIiPPdEENS_9allocatorIS4_EEE24__emplace_back_slow_pathIJS4_EEEvDpOT_, symObjAddr: 0x5260, symBinAddr: 0x1000093D0, symSize: 0xD0 }
  - { offsetInCU: 0x15911, offset: 0x15911, size: 0x8, addend: 0x0, symName: __ZNSt3__117__compressed_pairIPNS_4pairIiPPdEENS_9allocatorIS4_EEE5firstB7v160006Ev, symObjAddr: 0x5330, symBinAddr: 0x1000094A0, symSize: 0x20 }
  - { offsetInCU: 0x15937, offset: 0x15937, size: 0x8, addend: 0x0, symName: __ZNSt3__122__compressed_pair_elemIPNS_4pairIiPPdEELi0ELb0EE5__getB7v160006Ev, symObjAddr: 0x5350, symBinAddr: 0x1000094C0, symSize: 0x10 }
  - { offsetInCU: 0x15976, offset: 0x15976, size: 0x8, addend: 0x0, symName: __ZNSt3__16vectorINS_4pairIiPPdEENS_9allocatorIS4_EEE21_ConstructTransactionC1B7v160006ERS7_m, symObjAddr: 0x5360, symBinAddr: 0x1000094D0, symSize: 0x30 }
  - { offsetInCU: 0x159BE, offset: 0x159BE, size: 0x8, addend: 0x0, symName: __ZNSt3__116allocator_traitsINS_9allocatorINS_4pairIiPPdEEEEE9constructB7v160006IS5_JS5_EvEEvRS6_PT_DpOT0_, symObjAddr: 0x5390, symBinAddr: 0x100009500, symSize: 0x30 }
  - { offsetInCU: 0x15A15, offset: 0x15A15, size: 0x8, addend: 0x0, symName: __ZNSt3__16vectorINS_4pairIiPPdEENS_9allocatorIS4_EEE21_ConstructTransactionD1B7v160006Ev, symObjAddr: 0x53C0, symBinAddr: 0x100009530, symSize: 0x20 }
  - { offsetInCU: 0x15A3F, offset: 0x15A3F, size: 0x8, addend: 0x0, symName: __ZNSt3__16vectorINS_4pairIiPPdEENS_9allocatorIS4_EEE21_ConstructTransactionC2B7v160006ERS7_m, symObjAddr: 0x53E0, symBinAddr: 0x100009550, symSize: 0x40 }
  - { offsetInCU: 0x15A87, offset: 0x15A87, size: 0x8, addend: 0x0, symName: __ZNSt3__19allocatorINS_4pairIiPPdEEE9constructB7v160006IS4_JS4_EEEvPT_DpOT0_, symObjAddr: 0x5420, symBinAddr: 0x100009590, symSize: 0x30 }
  - { offsetInCU: 0x15ADD, offset: 0x15ADD, size: 0x8, addend: 0x0, symName: __ZNSt3__16vectorINS_4pairIiPPdEENS_9allocatorIS4_EEE21_ConstructTransactionD2B7v160006Ev, symObjAddr: 0x5450, symBinAddr: 0x1000095C0, symSize: 0x20 }
  - { offsetInCU: 0x15B07, offset: 0x15B07, size: 0x8, addend: 0x0, symName: __ZNKSt3__16vectorINS_4pairIiPPdEENS_9allocatorIS4_EEE11__recommendB7v160006Em, symObjAddr: 0x5470, symBinAddr: 0x1000095E0, symSize: 0xA0 }
  - { offsetInCU: 0x15B5C, offset: 0x15B5C, size: 0x8, addend: 0x0, symName: __ZNSt3__114__split_bufferINS_4pairIiPPdEERNS_9allocatorIS4_EEEC1EmmS7_, symObjAddr: 0x5510, symBinAddr: 0x100009680, symSize: 0x40 }
  - { offsetInCU: 0x15BB2, offset: 0x15BB2, size: 0x8, addend: 0x0, symName: __ZNSt3__114__split_bufferINS_4pairIiPPdEERNS_9allocatorIS4_EEED1Ev, symObjAddr: 0x5680, symBinAddr: 0x1000097F0, symSize: 0x20 }
  - { offsetInCU: 0x15BDE, offset: 0x15BDE, size: 0x8, addend: 0x0, symName: __ZNKSt3__16vectorINS_4pairIiPPdEENS_9allocatorIS4_EEE8max_sizeEv, symObjAddr: 0x56A0, symBinAddr: 0x100009810, symSize: 0x60 }
  - { offsetInCU: 0x15C06, offset: 0x15C06, size: 0x8, addend: 0x0, symName: __ZNKSt3__16vectorINS_4pairIiPPdEENS_9allocatorIS4_EEE20__throw_length_errorB7v160006Ev, symObjAddr: 0x5700, symBinAddr: 0x100009870, symSize: 0x20 }
  - { offsetInCU: 0x15C36, offset: 0x15C36, size: 0x8, addend: 0x0, symName: __ZNSt3__116allocator_traitsINS_9allocatorINS_4pairIiPPdEEEEE8max_sizeB7v160006IS6_vEEmRKS6_, symObjAddr: 0x5780, symBinAddr: 0x1000098F0, symSize: 0x20 }
  - { offsetInCU: 0x15C64, offset: 0x15C64, size: 0x8, addend: 0x0, symName: __ZNKSt3__16vectorINS_4pairIiPPdEENS_9allocatorIS4_EEE7__allocB7v160006Ev, symObjAddr: 0x57A0, symBinAddr: 0x100009910, symSize: 0x20 }
  - { offsetInCU: 0x15C8A, offset: 0x15C8A, size: 0x8, addend: 0x0, symName: __ZNSt3__114numeric_limitsIlE3maxB7v160006Ev, symObjAddr: 0x57C0, symBinAddr: 0x100009930, symSize: 0x10 }
  - { offsetInCU: 0x15CA8, offset: 0x15CA8, size: 0x8, addend: 0x0, symName: __ZNKSt3__16__lessImmEclB7v160006ERKmS3_, symObjAddr: 0x5820, symBinAddr: 0x100009990, symSize: 0x30 }
  - { offsetInCU: 0x15CEA, offset: 0x15CEA, size: 0x8, addend: 0x0, symName: __ZNKSt3__19allocatorINS_4pairIiPPdEEE8max_sizeB7v160006Ev, symObjAddr: 0x5850, symBinAddr: 0x1000099C0, symSize: 0x20 }
  - { offsetInCU: 0x15D10, offset: 0x15D10, size: 0x8, addend: 0x0, symName: __ZNKSt3__117__compressed_pairIPNS_4pairIiPPdEENS_9allocatorIS4_EEE6secondB7v160006Ev, symObjAddr: 0x5870, symBinAddr: 0x1000099E0, symSize: 0x20 }
  - { offsetInCU: 0x15D36, offset: 0x15D36, size: 0x8, addend: 0x0, symName: __ZNKSt3__122__compressed_pair_elemINS_9allocatorINS_4pairIiPPdEEEELi1ELb1EE5__getB7v160006Ev, symObjAddr: 0x5890, symBinAddr: 0x100009A00, symSize: 0x10 }
  - { offsetInCU: 0x15D5C, offset: 0x15D5C, size: 0x8, addend: 0x0, symName: __ZNSt3__123__libcpp_numeric_limitsIlLb1EE3maxB7v160006Ev, symObjAddr: 0x58A0, symBinAddr: 0x100009A10, symSize: 0x10 }
  - { offsetInCU: 0x15D70, offset: 0x15D70, size: 0x8, addend: 0x0, symName: __ZNSt12length_errorC1B7v160006EPKc, symObjAddr: 0x5920, symBinAddr: 0x100009A90, symSize: 0x30 }
  - { offsetInCU: 0x15DA8, offset: 0x15DA8, size: 0x8, addend: 0x0, symName: __ZNSt12length_errorC2B7v160006EPKc, symObjAddr: 0x5950, symBinAddr: 0x100009AC0, symSize: 0x40 }
  - { offsetInCU: 0x15DE0, offset: 0x15DE0, size: 0x8, addend: 0x0, symName: __ZNSt3__114__split_bufferINS_4pairIiPPdEERNS_9allocatorIS4_EEEC2EmmS7_, symObjAddr: 0x59E0, symBinAddr: 0x100009B50, symSize: 0xD0 }
  - { offsetInCU: 0x15E53, offset: 0x15E53, size: 0x8, addend: 0x0, symName: __ZNSt3__117__compressed_pairIPNS_4pairIiPPdEERNS_9allocatorIS4_EEEC1B7v160006IDnS8_EEOT_OT0_, symObjAddr: 0x5AB0, symBinAddr: 0x100009C20, symSize: 0x30 }
  - { offsetInCU: 0x15EAB, offset: 0x15EAB, size: 0x8, addend: 0x0, symName: __ZNSt3__114__split_bufferINS_4pairIiPPdEERNS_9allocatorIS4_EEE7__allocB7v160006Ev, symObjAddr: 0x5B20, symBinAddr: 0x100009C90, symSize: 0x20 }
  - { offsetInCU: 0x15ED1, offset: 0x15ED1, size: 0x8, addend: 0x0, symName: __ZNSt3__114__split_bufferINS_4pairIiPPdEERNS_9allocatorIS4_EEE9__end_capB7v160006Ev, symObjAddr: 0x5B40, symBinAddr: 0x100009CB0, symSize: 0x20 }
  - { offsetInCU: 0x15EF7, offset: 0x15EF7, size: 0x8, addend: 0x0, symName: __ZNSt3__117__compressed_pairIPNS_4pairIiPPdEERNS_9allocatorIS4_EEEC2B7v160006IDnS8_EEOT_OT0_, symObjAddr: 0x5B60, symBinAddr: 0x100009CD0, symSize: 0x40 }
  - { offsetInCU: 0x15F4F, offset: 0x15F4F, size: 0x8, addend: 0x0, symName: __ZNSt3__122__compressed_pair_elemIRNS_9allocatorINS_4pairIiPPdEEEELi1ELb0EEC2B7v160006IS7_vEEOT_, symObjAddr: 0x5BA0, symBinAddr: 0x100009D10, symSize: 0x20 }
  - { offsetInCU: 0x15F91, offset: 0x15F91, size: 0x8, addend: 0x0, symName: __ZNSt3__19allocatorINS_4pairIiPPdEEE8allocateB7v160006Em, symObjAddr: 0x5BC0, symBinAddr: 0x100009D30, symSize: 0x50 }
  - { offsetInCU: 0x15FC5, offset: 0x15FC5, size: 0x8, addend: 0x0, symName: __ZNSt3__117__compressed_pairIPNS_4pairIiPPdEERNS_9allocatorIS4_EEE6secondB7v160006Ev, symObjAddr: 0x5C90, symBinAddr: 0x100009E00, symSize: 0x20 }
  - { offsetInCU: 0x15FEB, offset: 0x15FEB, size: 0x8, addend: 0x0, symName: __ZNSt3__122__compressed_pair_elemIRNS_9allocatorINS_4pairIiPPdEEEELi1ELb0EE5__getB7v160006Ev, symObjAddr: 0x5CB0, symBinAddr: 0x100009E20, symSize: 0x20 }
  - { offsetInCU: 0x16011, offset: 0x16011, size: 0x8, addend: 0x0, symName: __ZNSt3__117__compressed_pairIPNS_4pairIiPPdEERNS_9allocatorIS4_EEE5firstB7v160006Ev, symObjAddr: 0x5CD0, symBinAddr: 0x100009E40, symSize: 0x20 }
  - { offsetInCU: 0x16037, offset: 0x16037, size: 0x8, addend: 0x0, symName: __ZNSt3__116reverse_iteratorIPNS_4pairIiPPdEEEC1B7v160006ES5_, symObjAddr: 0x5E70, symBinAddr: 0x100009FE0, symSize: 0x30 }
  - { offsetInCU: 0x1606F, offset: 0x1606F, size: 0x8, addend: 0x0, symName: __ZNKSt3__116reverse_iteratorIPNS_4pairIiPPdEEE4baseB7v160006Ev, symObjAddr: 0x5EA0, symBinAddr: 0x10000A010, symSize: 0x20 }
  - { offsetInCU: 0x16095, offset: 0x16095, size: 0x8, addend: 0x0, symName: __ZNKSt3__16vectorINS_4pairIiPPdEENS_9allocatorIS4_EEE14__annotate_newB7v160006Em, symObjAddr: 0x5F00, symBinAddr: 0x10000A070, symSize: 0xB0 }
  - { offsetInCU: 0x160CA, offset: 0x160CA, size: 0x8, addend: 0x0, symName: __ZNSt3__129_AllocatorDestroyRangeReverseINS_9allocatorINS_4pairIiPPdEEEENS_16reverse_iteratorIPS5_EEEC1B7v160006ERS6_RS9_SC_, symObjAddr: 0x6020, symBinAddr: 0x10000A190, symSize: 0x40 }
  - { offsetInCU: 0x16121, offset: 0x16121, size: 0x8, addend: 0x0, symName: __ZNKSt3__116reverse_iteratorIPNS_4pairIiPPdEEEdeB7v160006Ev, symObjAddr: 0x60C0, symBinAddr: 0x10000A230, symSize: 0x30 }
  - { offsetInCU: 0x16155, offset: 0x16155, size: 0x8, addend: 0x0, symName: __ZNSt3__116reverse_iteratorIPNS_4pairIiPPdEEEppB7v160006Ev, symObjAddr: 0x60F0, symBinAddr: 0x10000A260, symSize: 0x20 }
  - { offsetInCU: 0x1617B, offset: 0x1617B, size: 0x8, addend: 0x0, symName: __ZNSt3__128__exception_guard_exceptionsINS_29_AllocatorDestroyRangeReverseINS_9allocatorINS_4pairIiPPdEEEENS_16reverse_iteratorIPS6_EEEEE10__completeB7v160006Ev, symObjAddr: 0x6110, symBinAddr: 0x10000A280, symSize: 0x20 }
  - { offsetInCU: 0x161A1, offset: 0x161A1, size: 0x8, addend: 0x0, symName: __ZNSt3__128__exception_guard_exceptionsINS_29_AllocatorDestroyRangeReverseINS_9allocatorINS_4pairIiPPdEEEENS_16reverse_iteratorIPS6_EEEEED1B7v160006Ev, symObjAddr: 0x6130, symBinAddr: 0x10000A2A0, symSize: 0x20 }
  - { offsetInCU: 0x161CB, offset: 0x161CB, size: 0x8, addend: 0x0, symName: __ZNSt3__128__exception_guard_exceptionsINS_29_AllocatorDestroyRangeReverseINS_9allocatorINS_4pairIiPPdEEEENS_16reverse_iteratorIPS6_EEEEEC1B7v160006ESB_, symObjAddr: 0x6150, symBinAddr: 0x10000A2C0, symSize: 0x40 }
  - { offsetInCU: 0x16203, offset: 0x16203, size: 0x8, addend: 0x0, symName: __ZNSt3__128__exception_guard_exceptionsINS_29_AllocatorDestroyRangeReverseINS_9allocatorINS_4pairIiPPdEEEENS_16reverse_iteratorIPS6_EEEEEC2B7v160006ESB_, symObjAddr: 0x6190, symBinAddr: 0x10000A300, symSize: 0x30 }
  - { offsetInCU: 0x1623B, offset: 0x1623B, size: 0x8, addend: 0x0, symName: __ZNSt3__129_AllocatorDestroyRangeReverseINS_9allocatorINS_4pairIiPPdEEEENS_16reverse_iteratorIPS5_EEEC2B7v160006ERS6_RS9_SC_, symObjAddr: 0x61C0, symBinAddr: 0x10000A330, symSize: 0x40 }
  - { offsetInCU: 0x16297, offset: 0x16297, size: 0x8, addend: 0x0, symName: __ZNSt3__119__to_address_helperINS_16reverse_iteratorIPNS_4pairIiPPdEEEEvE6__callB7v160006ERKS7_, symObjAddr: 0x6200, symBinAddr: 0x10000A370, symSize: 0x40 }
  - { offsetInCU: 0x162BA, offset: 0x162BA, size: 0x8, addend: 0x0, symName: __ZNKSt3__116reverse_iteratorIPNS_4pairIiPPdEEEptB7v160006Ev, symObjAddr: 0x6240, symBinAddr: 0x10000A3B0, symSize: 0x20 }
  - { offsetInCU: 0x162E0, offset: 0x162E0, size: 0x8, addend: 0x0, symName: __ZNSt3__128__exception_guard_exceptionsINS_29_AllocatorDestroyRangeReverseINS_9allocatorINS_4pairIiPPdEEEENS_16reverse_iteratorIPS6_EEEEED2B7v160006Ev, symObjAddr: 0x6260, symBinAddr: 0x10000A3D0, symSize: 0x40 }
  - { offsetInCU: 0x1630A, offset: 0x1630A, size: 0x8, addend: 0x0, symName: __ZNKSt3__129_AllocatorDestroyRangeReverseINS_9allocatorINS_4pairIiPPdEEEENS_16reverse_iteratorIPS5_EEEclB7v160006Ev, symObjAddr: 0x62A0, symBinAddr: 0x10000A410, symSize: 0xF0 }
  - { offsetInCU: 0x16331, offset: 0x16331, size: 0x8, addend: 0x0, symName: __ZNSt3__116reverse_iteratorINS0_IPNS_4pairIiPPdEEEEEC1B7v160006ES6_, symObjAddr: 0x6400, symBinAddr: 0x10000A570, symSize: 0x30 }
  - { offsetInCU: 0x16369, offset: 0x16369, size: 0x8, addend: 0x0, symName: __ZNSt3__116reverse_iteratorINS0_IPNS_4pairIiPPdEEEEEppB7v160006Ev, symObjAddr: 0x64A0, symBinAddr: 0x10000A610, symSize: 0x30 }
  - { offsetInCU: 0x1638F, offset: 0x1638F, size: 0x8, addend: 0x0, symName: __ZNKSt3__116reverse_iteratorINS0_IPNS_4pairIiPPdEEEEE4baseB7v160006Ev, symObjAddr: 0x64D0, symBinAddr: 0x10000A640, symSize: 0x20 }
  - { offsetInCU: 0x163BA, offset: 0x163BA, size: 0x8, addend: 0x0, symName: __ZNSt3__119__to_address_helperINS_16reverse_iteratorINS1_IPNS_4pairIiPPdEEEEEEvE6__callB7v160006ERKS8_, symObjAddr: 0x64F0, symBinAddr: 0x10000A660, symSize: 0x40 }
  - { offsetInCU: 0x163DD, offset: 0x163DD, size: 0x8, addend: 0x0, symName: __ZNKSt3__116reverse_iteratorINS0_IPNS_4pairIiPPdEEEEEptB7v160006Ev, symObjAddr: 0x6530, symBinAddr: 0x10000A6A0, symSize: 0x20 }
  - { offsetInCU: 0x16403, offset: 0x16403, size: 0x8, addend: 0x0, symName: __ZNKSt3__116reverse_iteratorINS0_IPNS_4pairIiPPdEEEEEdeB7v160006Ev, symObjAddr: 0x6550, symBinAddr: 0x10000A6C0, symSize: 0x40 }
  - { offsetInCU: 0x16437, offset: 0x16437, size: 0x8, addend: 0x0, symName: __ZNSt3__116reverse_iteratorIPNS_4pairIiPPdEEEmmB7v160006Ev, symObjAddr: 0x6590, symBinAddr: 0x10000A700, symSize: 0x20 }
  - { offsetInCU: 0x1645D, offset: 0x1645D, size: 0x8, addend: 0x0, symName: __ZNSt3__116reverse_iteratorINS0_IPNS_4pairIiPPdEEEEEC2B7v160006ES6_, symObjAddr: 0x65B0, symBinAddr: 0x10000A720, symSize: 0x40 }
  - { offsetInCU: 0x16495, offset: 0x16495, size: 0x8, addend: 0x0, symName: __ZNSt3__116reverse_iteratorIPNS_4pairIiPPdEEEC2B7v160006ES5_, symObjAddr: 0x65F0, symBinAddr: 0x10000A760, symSize: 0x30 }
  - { offsetInCU: 0x164CD, offset: 0x164CD, size: 0x8, addend: 0x0, symName: __ZNSt3__114__split_bufferINS_4pairIiPPdEERNS_9allocatorIS4_EEED2Ev, symObjAddr: 0x6620, symBinAddr: 0x10000A790, symSize: 0x70 }
  - { offsetInCU: 0x164F9, offset: 0x164F9, size: 0x8, addend: 0x0, symName: __ZNSt3__114__split_bufferINS_4pairIiPPdEERNS_9allocatorIS4_EEE5clearB7v160006Ev, symObjAddr: 0x6690, symBinAddr: 0x10000A800, symSize: 0x20 }
  - { offsetInCU: 0x1651F, offset: 0x1651F, size: 0x8, addend: 0x0, symName: __ZNKSt3__114__split_bufferINS_4pairIiPPdEERNS_9allocatorIS4_EEE8capacityB7v160006Ev, symObjAddr: 0x66B0, symBinAddr: 0x10000A820, symSize: 0x30 }
  - { offsetInCU: 0x16545, offset: 0x16545, size: 0x8, addend: 0x0, symName: __ZNSt3__114__split_bufferINS_4pairIiPPdEERNS_9allocatorIS4_EEE17__destruct_at_endB7v160006EPS4_, symObjAddr: 0x66E0, symBinAddr: 0x10000A850, symSize: 0x30 }
  - { offsetInCU: 0x16579, offset: 0x16579, size: 0x8, addend: 0x0, symName: __ZNSt3__114__split_bufferINS_4pairIiPPdEERNS_9allocatorIS4_EEE17__destruct_at_endB7v160006EPS4_NS_17integral_constantIbLb0EEE, symObjAddr: 0x6710, symBinAddr: 0x10000A880, symSize: 0x80 }
  - { offsetInCU: 0x165B9, offset: 0x165B9, size: 0x8, addend: 0x0, symName: __ZNKSt3__114__split_bufferINS_4pairIiPPdEERNS_9allocatorIS4_EEE9__end_capB7v160006Ev, symObjAddr: 0x6790, symBinAddr: 0x10000A900, symSize: 0x20 }
  - { offsetInCU: 0x165DF, offset: 0x165DF, size: 0x8, addend: 0x0, symName: __ZNKSt3__117__compressed_pairIPNS_4pairIiPPdEERNS_9allocatorIS4_EEE5firstB7v160006Ev, symObjAddr: 0x67B0, symBinAddr: 0x10000A920, symSize: 0x20 }
  - { offsetInCU: 0x16605, offset: 0x16605, size: 0x8, addend: 0x0, symName: __ZNSt3__16vectorINS_4pairIiPPdEENS_9allocatorIS4_EEE11__make_iterB7v160006EPS4_, symObjAddr: 0x67D0, symBinAddr: 0x10000A940, symSize: 0x30 }
  - { offsetInCU: 0x1663A, offset: 0x1663A, size: 0x8, addend: 0x0, symName: __ZNSt3__111__wrap_iterIPNS_4pairIiPPdEEEC1B7v160006EPKvS5_, symObjAddr: 0x6800, symBinAddr: 0x10000A970, symSize: 0x30 }
  - { offsetInCU: 0x16680, offset: 0x16680, size: 0x8, addend: 0x0, symName: __ZNSt3__111__wrap_iterIPNS_4pairIiPPdEEEC2B7v160006EPKvS5_, symObjAddr: 0x6830, symBinAddr: 0x10000A9A0, symSize: 0x20 }
  - { offsetInCU: 0x166C6, offset: 0x166C6, size: 0x8, addend: 0x0, symName: __ZNSt3__13mapINS_12basic_stringIcNS_11char_traitsIcEENS_9allocatorIcEEEEPPdNS_4lessIS6_EENS4_INS_4pairIKS6_S8_EEEEEC2B7v160006Ev, symObjAddr: 0x6850, symBinAddr: 0x10000A9C0, symSize: 0x30 }
  - { offsetInCU: 0x166F0, offset: 0x166F0, size: 0x8, addend: 0x0, symName: __ZNSt3__119__map_value_compareINS_12basic_stringIcNS_11char_traitsIcEENS_9allocatorIcEEEENS_12__value_typeIS6_PPdEENS_4lessIS6_EELb1EEC1B7v160006ESC_, symObjAddr: 0x6880, symBinAddr: 0x10000A9F0, symSize: 0x20 }
  - { offsetInCU: 0x16729, offset: 0x16729, size: 0x8, addend: 0x0, symName: __ZNSt3__16__treeINS_12__value_typeINS_12basic_stringIcNS_11char_traitsIcEENS_9allocatorIcEEEEPPdEENS_19__map_value_compareIS7_SA_NS_4lessIS7_EELb1EEENS5_ISA_EEEC1ERKSE_, symObjAddr: 0x68A0, symBinAddr: 0x10000AA10, symSize: 0x30 }
  - { offsetInCU: 0x16764, offset: 0x16764, size: 0x8, addend: 0x0, symName: __ZNSt3__119__map_value_compareINS_12basic_stringIcNS_11char_traitsIcEENS_9allocatorIcEEEENS_12__value_typeIS6_PPdEENS_4lessIS6_EELb1EEC2B7v160006ESC_, symObjAddr: 0x68D0, symBinAddr: 0x10000AA40, symSize: 0x10 }
  - { offsetInCU: 0x1679D, offset: 0x1679D, size: 0x8, addend: 0x0, symName: __ZNSt3__16__treeINS_12__value_typeINS_12basic_stringIcNS_11char_traitsIcEENS_9allocatorIcEEEEPPdEENS_19__map_value_compareIS7_SA_NS_4lessIS7_EELb1EEENS5_ISA_EEEC2ERKSE_, symObjAddr: 0x68E0, symBinAddr: 0x10000AA50, symSize: 0x80 }
  - { offsetInCU: 0x167D8, offset: 0x167D8, size: 0x8, addend: 0x0, symName: __ZNSt3__117__compressed_pairINS_15__tree_end_nodeIPNS_16__tree_node_baseIPvEEEENS_9allocatorINS_11__tree_nodeINS_12__value_typeINS_12basic_stringIcNS_11char_traitsIcEENS7_IcEEEEPPdEES3_EEEEEC1B7v160006ILb1EvEEv, symObjAddr: 0x6960, symBinAddr: 0x10000AAD0, symSize: 0x20 }
  - { offsetInCU: 0x1680D, offset: 0x1680D, size: 0x8, addend: 0x0, symName: __ZNSt3__117__compressed_pairImNS_19__map_value_compareINS_12basic_stringIcNS_11char_traitsIcEENS_9allocatorIcEEEENS_12__value_typeIS7_PPdEENS_4lessIS7_EELb1EEEEC1B7v160006IiRKSE_EEOT_OT0_, symObjAddr: 0x6980, symBinAddr: 0x10000AAF0, symSize: 0x30 }
  - { offsetInCU: 0x16865, offset: 0x16865, size: 0x8, addend: 0x0, symName: __ZNSt3__117__compressed_pairINS_15__tree_end_nodeIPNS_16__tree_node_baseIPvEEEENS_9allocatorINS_11__tree_nodeINS_12__value_typeINS_12basic_stringIcNS_11char_traitsIcEENS7_IcEEEEPPdEES3_EEEEEC2B7v160006ILb1EvEEv, symObjAddr: 0x69B0, symBinAddr: 0x10000AB20, symSize: 0x30 }
  - { offsetInCU: 0x1689A, offset: 0x1689A, size: 0x8, addend: 0x0, symName: __ZNSt3__122__compressed_pair_elemINS_15__tree_end_nodeIPNS_16__tree_node_baseIPvEEEELi0ELb0EEC2B7v160006ENS_16__value_init_tagE, symObjAddr: 0x69E0, symBinAddr: 0x10000AB50, symSize: 0x20 }
  - { offsetInCU: 0x168CE, offset: 0x168CE, size: 0x8, addend: 0x0, symName: __ZNSt3__122__compressed_pair_elemINS_9allocatorINS_11__tree_nodeINS_12__value_typeINS_12basic_stringIcNS_11char_traitsIcEENS1_IcEEEEPPdEEPvEEEELi1ELb1EEC2B7v160006ENS_16__value_init_tagE, symObjAddr: 0x6A00, symBinAddr: 0x10000AB70, symSize: 0x20 }
  - { offsetInCU: 0x16902, offset: 0x16902, size: 0x8, addend: 0x0, symName: __ZNSt3__115__tree_end_nodeIPNS_16__tree_node_baseIPvEEEC1B7v160006Ev, symObjAddr: 0x6A20, symBinAddr: 0x10000AB90, symSize: 0x20 }
  - { offsetInCU: 0x1692C, offset: 0x1692C, size: 0x8, addend: 0x0, symName: __ZNSt3__115__tree_end_nodeIPNS_16__tree_node_baseIPvEEEC2B7v160006Ev, symObjAddr: 0x6A40, symBinAddr: 0x10000ABB0, symSize: 0x20 }
  - { offsetInCU: 0x16956, offset: 0x16956, size: 0x8, addend: 0x0, symName: __ZNSt3__19allocatorINS_11__tree_nodeINS_12__value_typeINS_12basic_stringIcNS_11char_traitsIcEENS0_IcEEEEPPdEEPvEEEC2B7v160006Ev, symObjAddr: 0x6A60, symBinAddr: 0x10000ABD0, symSize: 0x20 }
  - { offsetInCU: 0x16980, offset: 0x16980, size: 0x8, addend: 0x0, symName: __ZNSt3__116__non_trivial_ifILb1ENS_9allocatorINS_11__tree_nodeINS_12__value_typeINS_12basic_stringIcNS_11char_traitsIcEENS1_IcEEEEPPdEEPvEEEEEC2B7v160006Ev, symObjAddr: 0x6A80, symBinAddr: 0x10000ABF0, symSize: 0x10 }
  - { offsetInCU: 0x169AA, offset: 0x169AA, size: 0x8, addend: 0x0, symName: __ZNSt3__117__compressed_pairImNS_19__map_value_compareINS_12basic_stringIcNS_11char_traitsIcEENS_9allocatorIcEEEENS_12__value_typeIS7_PPdEENS_4lessIS7_EELb1EEEEC2B7v160006IiRKSE_EEOT_OT0_, symObjAddr: 0x6A90, symBinAddr: 0x10000AC00, symSize: 0x40 }
  - { offsetInCU: 0x16A02, offset: 0x16A02, size: 0x8, addend: 0x0, symName: __ZNSt3__122__compressed_pair_elemImLi0ELb0EEC2B7v160006IivEEOT_, symObjAddr: 0x6AD0, symBinAddr: 0x10000AC40, symSize: 0x20 }
  - { offsetInCU: 0x16A44, offset: 0x16A44, size: 0x8, addend: 0x0, symName: __ZNSt3__122__compressed_pair_elemINS_19__map_value_compareINS_12basic_stringIcNS_11char_traitsIcEENS_9allocatorIcEEEENS_12__value_typeIS7_PPdEENS_4lessIS7_EELb1EEELi1ELb1EEC2B7v160006IRKSE_vEEOT_, symObjAddr: 0x6AF0, symBinAddr: 0x10000AC60, symSize: 0x10 }
  - { offsetInCU: 0x16A86, offset: 0x16A86, size: 0x8, addend: 0x0, symName: __ZNSt3__13mapINS_12basic_stringIcNS_11char_traitsIcEENS_9allocatorIcEEEEPPdNS_4lessIS6_EENS4_INS_4pairIKS6_S8_EEEEED2B7v160006Ev, symObjAddr: 0x6B00, symBinAddr: 0x10000AC70, symSize: 0x20 }
  - { offsetInCU: 0x16AB0, offset: 0x16AB0, size: 0x8, addend: 0x0, symName: __ZNSt3__16__treeINS_12__value_typeINS_12basic_stringIcNS_11char_traitsIcEENS_9allocatorIcEEEEPPdEENS_19__map_value_compareIS7_SA_NS_4lessIS7_EELb1EEENS5_ISA_EEED1Ev, symObjAddr: 0x6B20, symBinAddr: 0x10000AC90, symSize: 0x20 }
  - { offsetInCU: 0x16ADC, offset: 0x16ADC, size: 0x8, addend: 0x0, symName: __ZNSt3__16__treeINS_12__value_typeINS_12basic_stringIcNS_11char_traitsIcEENS_9allocatorIcEEEEPPdEENS_19__map_value_compareIS7_SA_NS_4lessIS7_EELb1EEENS5_ISA_EEED2Ev, symObjAddr: 0x6B40, symBinAddr: 0x10000ACB0, symSize: 0x30 }
  - { offsetInCU: 0x16B08, offset: 0x16B08, size: 0x8, addend: 0x0, symName: __ZNSt3__16__treeINS_12__value_typeINS_12basic_stringIcNS_11char_traitsIcEENS_9allocatorIcEEEEPPdEENS_19__map_value_compareIS7_SA_NS_4lessIS7_EELb1EEENS5_ISA_EEE7destroyEPNS_11__tree_nodeISA_PvEE, symObjAddr: 0x6B70, symBinAddr: 0x10000ACE0, symSize: 0xB0 }
  - { offsetInCU: 0x16B54, offset: 0x16B54, size: 0x8, addend: 0x0, symName: __ZNKSt3__16__treeINS_12__value_typeINS_12basic_stringIcNS_11char_traitsIcEENS_9allocatorIcEEEEPPdEENS_19__map_value_compareIS7_SA_NS_4lessIS7_EELb1EEENS5_ISA_EEE6__rootB7v160006Ev, symObjAddr: 0x6C20, symBinAddr: 0x10000AD90, symSize: 0x20 }
  - { offsetInCU: 0x16B7A, offset: 0x16B7A, size: 0x8, addend: 0x0, symName: __ZNSt3__16__treeINS_12__value_typeINS_12basic_stringIcNS_11char_traitsIcEENS_9allocatorIcEEEEPPdEENS_19__map_value_compareIS7_SA_NS_4lessIS7_EELb1EEENS5_ISA_EEE12__node_allocB7v160006Ev, symObjAddr: 0x6C40, symBinAddr: 0x10000ADB0, symSize: 0x20 }
  - { offsetInCU: 0x16BA0, offset: 0x16BA0, size: 0x8, addend: 0x0, symName: __ZNSt3__116allocator_traitsINS_9allocatorINS_11__tree_nodeINS_12__value_typeINS_12basic_stringIcNS_11char_traitsIcEENS1_IcEEEEPPdEEPvEEEEE7destroyB7v160006INS_4pairIKS8_SA_EEvvEEvRSE_PT_, symObjAddr: 0x6C60, symBinAddr: 0x10000ADD0, symSize: 0x20 }
  - { offsetInCU: 0x16BDB, offset: 0x16BDB, size: 0x8, addend: 0x0, symName: __ZNSt3__122__tree_key_value_typesINS_12__value_typeINS_12basic_stringIcNS_11char_traitsIcEENS_9allocatorIcEEEEPPdEEE9__get_ptrB7v160006ERSA_, symObjAddr: 0x6C80, symBinAddr: 0x10000ADF0, symSize: 0x20 }
  - { offsetInCU: 0x16BFF, offset: 0x16BFF, size: 0x8, addend: 0x0, symName: __ZNSt3__116allocator_traitsINS_9allocatorINS_11__tree_nodeINS_12__value_typeINS_12basic_stringIcNS_11char_traitsIcEENS1_IcEEEEPPdEEPvEEEEE10deallocateB7v160006ERSE_PSD_m, symObjAddr: 0x6CA0, symBinAddr: 0x10000AE10, symSize: 0x30 }
  - { offsetInCU: 0x16C41, offset: 0x16C41, size: 0x8, addend: 0x0, symName: __ZNSt3__117__compressed_pairINS_15__tree_end_nodeIPNS_16__tree_node_baseIPvEEEENS_9allocatorINS_11__tree_nodeINS_12__value_typeINS_12basic_stringIcNS_11char_traitsIcEENS7_IcEEEEPPdEES3_EEEEE6secondB7v160006Ev, symObjAddr: 0x6CD0, symBinAddr: 0x10000AE40, symSize: 0x20 }
  - { offsetInCU: 0x16C67, offset: 0x16C67, size: 0x8, addend: 0x0, symName: __ZNSt3__122__compressed_pair_elemINS_9allocatorINS_11__tree_nodeINS_12__value_typeINS_12basic_stringIcNS_11char_traitsIcEENS1_IcEEEEPPdEEPvEEEELi1ELb1EE5__getB7v160006Ev, symObjAddr: 0x6CF0, symBinAddr: 0x10000AE60, symSize: 0x10 }
  - { offsetInCU: 0x16C8D, offset: 0x16C8D, size: 0x8, addend: 0x0, symName: __ZNSt3__14pairIKNS_12basic_stringIcNS_11char_traitsIcEENS_9allocatorIcEEEEPPdED1Ev, symObjAddr: 0x6D00, symBinAddr: 0x10000AE70, symSize: 0x20 }
  - { offsetInCU: 0x16CB9, offset: 0x16CB9, size: 0x8, addend: 0x0, symName: __ZNSt3__14pairIKNS_12basic_stringIcNS_11char_traitsIcEENS_9allocatorIcEEEEPPdED2Ev, symObjAddr: 0x6D20, symBinAddr: 0x10000AE90, symSize: 0x20 }
  - { offsetInCU: 0x16CE5, offset: 0x16CE5, size: 0x8, addend: 0x0, symName: __ZNSt3__19allocatorINS_11__tree_nodeINS_12__value_typeINS_12basic_stringIcNS_11char_traitsIcEENS0_IcEEEEPPdEEPvEEE10deallocateB7v160006EPSC_m, symObjAddr: 0x6D40, symBinAddr: 0x10000AEB0, symSize: 0x40 }
  - { offsetInCU: 0x16D27, offset: 0x16D27, size: 0x8, addend: 0x0, symName: __ZNKSt3__16__treeINS_12__value_typeINS_12basic_stringIcNS_11char_traitsIcEENS_9allocatorIcEEEEPPdEENS_19__map_value_compareIS7_SA_NS_4lessIS7_EELb1EEENS5_ISA_EEE10__end_nodeB7v160006Ev, symObjAddr: 0x6D80, symBinAddr: 0x10000AEF0, symSize: 0x30 }
  - { offsetInCU: 0x16D4D, offset: 0x16D4D, size: 0x8, addend: 0x0, symName: __ZNKSt3__117__compressed_pairINS_15__tree_end_nodeIPNS_16__tree_node_baseIPvEEEENS_9allocatorINS_11__tree_nodeINS_12__value_typeINS_12basic_stringIcNS_11char_traitsIcEENS7_IcEEEEPPdEES3_EEEEE5firstB7v160006Ev, symObjAddr: 0x6DB0, symBinAddr: 0x10000AF20, symSize: 0x20 }
  - { offsetInCU: 0x16D73, offset: 0x16D73, size: 0x8, addend: 0x0, symName: __ZNKSt3__122__compressed_pair_elemINS_15__tree_end_nodeIPNS_16__tree_node_baseIPvEEEELi0ELb0EE5__getB7v160006Ev, symObjAddr: 0x6DD0, symBinAddr: 0x10000AF40, symSize: 0x10 }
  - { offsetInCU: 0x16D99, offset: 0x16D99, size: 0x8, addend: 0x0, symName: __ZNSt3__13mapINS_12basic_stringIcNS_11char_traitsIcEENS_9allocatorIcEEEEPdNS_4lessIS6_EENS4_INS_4pairIKS6_S7_EEEEEC2B7v160006Ev, symObjAddr: 0x6DE0, symBinAddr: 0x10000AF50, symSize: 0x30 }
  - { offsetInCU: 0x16DC3, offset: 0x16DC3, size: 0x8, addend: 0x0, symName: __ZNSt3__119__map_value_compareINS_12basic_stringIcNS_11char_traitsIcEENS_9allocatorIcEEEENS_12__value_typeIS6_PdEENS_4lessIS6_EELb1EEC1B7v160006ESB_, symObjAddr: 0x6E10, symBinAddr: 0x10000AF80, symSize: 0x20 }
  - { offsetInCU: 0x16DFC, offset: 0x16DFC, size: 0x8, addend: 0x0, symName: __ZNSt3__16__treeINS_12__value_typeINS_12basic_stringIcNS_11char_traitsIcEENS_9allocatorIcEEEEPdEENS_19__map_value_compareIS7_S9_NS_4lessIS7_EELb1EEENS5_IS9_EEEC1ERKSD_, symObjAddr: 0x6E30, symBinAddr: 0x10000AFA0, symSize: 0x30 }
  - { offsetInCU: 0x16E37, offset: 0x16E37, size: 0x8, addend: 0x0, symName: __ZNSt3__119__map_value_compareINS_12basic_stringIcNS_11char_traitsIcEENS_9allocatorIcEEEENS_12__value_typeIS6_PdEENS_4lessIS6_EELb1EEC2B7v160006ESB_, symObjAddr: 0x6E60, symBinAddr: 0x10000AFD0, symSize: 0x10 }
  - { offsetInCU: 0x16E70, offset: 0x16E70, size: 0x8, addend: 0x0, symName: __ZNSt3__16__treeINS_12__value_typeINS_12basic_stringIcNS_11char_traitsIcEENS_9allocatorIcEEEEPdEENS_19__map_value_compareIS7_S9_NS_4lessIS7_EELb1EEENS5_IS9_EEEC2ERKSD_, symObjAddr: 0x6E70, symBinAddr: 0x10000AFE0, symSize: 0x80 }
  - { offsetInCU: 0x16EAB, offset: 0x16EAB, size: 0x8, addend: 0x0, symName: __ZNSt3__117__compressed_pairINS_15__tree_end_nodeIPNS_16__tree_node_baseIPvEEEENS_9allocatorINS_11__tree_nodeINS_12__value_typeINS_12basic_stringIcNS_11char_traitsIcEENS7_IcEEEEPdEES3_EEEEEC1B7v160006ILb1EvEEv, symObjAddr: 0x6EF0, symBinAddr: 0x10000B060, symSize: 0x20 }
  - { offsetInCU: 0x16EE0, offset: 0x16EE0, size: 0x8, addend: 0x0, symName: __ZNSt3__117__compressed_pairImNS_19__map_value_compareINS_12basic_stringIcNS_11char_traitsIcEENS_9allocatorIcEEEENS_12__value_typeIS7_PdEENS_4lessIS7_EELb1EEEEC1B7v160006IiRKSD_EEOT_OT0_, symObjAddr: 0x6F10, symBinAddr: 0x10000B080, symSize: 0x30 }
  - { offsetInCU: 0x16F38, offset: 0x16F38, size: 0x8, addend: 0x0, symName: __ZNSt3__117__compressed_pairINS_15__tree_end_nodeIPNS_16__tree_node_baseIPvEEEENS_9allocatorINS_11__tree_nodeINS_12__value_typeINS_12basic_stringIcNS_11char_traitsIcEENS7_IcEEEEPdEES3_EEEEEC2B7v160006ILb1EvEEv, symObjAddr: 0x6F40, symBinAddr: 0x10000B0B0, symSize: 0x30 }
  - { offsetInCU: 0x16F6D, offset: 0x16F6D, size: 0x8, addend: 0x0, symName: __ZNSt3__122__compressed_pair_elemINS_9allocatorINS_11__tree_nodeINS_12__value_typeINS_12basic_stringIcNS_11char_traitsIcEENS1_IcEEEEPdEEPvEEEELi1ELb1EEC2B7v160006ENS_16__value_init_tagE, symObjAddr: 0x6F70, symBinAddr: 0x10000B0E0, symSize: 0x20 }
  - { offsetInCU: 0x16FA1, offset: 0x16FA1, size: 0x8, addend: 0x0, symName: __ZNSt3__19allocatorINS_11__tree_nodeINS_12__value_typeINS_12basic_stringIcNS_11char_traitsIcEENS0_IcEEEEPdEEPvEEEC2B7v160006Ev, symObjAddr: 0x6F90, symBinAddr: 0x10000B100, symSize: 0x20 }
  - { offsetInCU: 0x16FCB, offset: 0x16FCB, size: 0x8, addend: 0x0, symName: __ZNSt3__116__non_trivial_ifILb1ENS_9allocatorINS_11__tree_nodeINS_12__value_typeINS_12basic_stringIcNS_11char_traitsIcEENS1_IcEEEEPdEEPvEEEEEC2B7v160006Ev, symObjAddr: 0x6FB0, symBinAddr: 0x10000B120, symSize: 0x10 }
  - { offsetInCU: 0x16FF5, offset: 0x16FF5, size: 0x8, addend: 0x0, symName: __ZNSt3__117__compressed_pairImNS_19__map_value_compareINS_12basic_stringIcNS_11char_traitsIcEENS_9allocatorIcEEEENS_12__value_typeIS7_PdEENS_4lessIS7_EELb1EEEEC2B7v160006IiRKSD_EEOT_OT0_, symObjAddr: 0x6FC0, symBinAddr: 0x10000B130, symSize: 0x40 }
  - { offsetInCU: 0x1704D, offset: 0x1704D, size: 0x8, addend: 0x0, symName: __ZNSt3__122__compressed_pair_elemINS_19__map_value_compareINS_12basic_stringIcNS_11char_traitsIcEENS_9allocatorIcEEEENS_12__value_typeIS7_PdEENS_4lessIS7_EELb1EEELi1ELb1EEC2B7v160006IRKSD_vEEOT_, symObjAddr: 0x7000, symBinAddr: 0x10000B170, symSize: 0x10 }
  - { offsetInCU: 0x1708F, offset: 0x1708F, size: 0x8, addend: 0x0, symName: __ZNSt3__13mapINS_12basic_stringIcNS_11char_traitsIcEENS_9allocatorIcEEEEPdNS_4lessIS6_EENS4_INS_4pairIKS6_S7_EEEEED2B7v160006Ev, symObjAddr: 0x7010, symBinAddr: 0x10000B180, symSize: 0x20 }
  - { offsetInCU: 0x170B9, offset: 0x170B9, size: 0x8, addend: 0x0, symName: __ZNSt3__16__treeINS_12__value_typeINS_12basic_stringIcNS_11char_traitsIcEENS_9allocatorIcEEEEPdEENS_19__map_value_compareIS7_S9_NS_4lessIS7_EELb1EEENS5_IS9_EEED1Ev, symObjAddr: 0x7030, symBinAddr: 0x10000B1A0, symSize: 0x20 }
  - { offsetInCU: 0x170E5, offset: 0x170E5, size: 0x8, addend: 0x0, symName: __ZNSt3__16__treeINS_12__value_typeINS_12basic_stringIcNS_11char_traitsIcEENS_9allocatorIcEEEEPdEENS_19__map_value_compareIS7_S9_NS_4lessIS7_EELb1EEENS5_IS9_EEED2Ev, symObjAddr: 0x7050, symBinAddr: 0x10000B1C0, symSize: 0x30 }
  - { offsetInCU: 0x17111, offset: 0x17111, size: 0x8, addend: 0x0, symName: __ZNSt3__16__treeINS_12__value_typeINS_12basic_stringIcNS_11char_traitsIcEENS_9allocatorIcEEEEPdEENS_19__map_value_compareIS7_S9_NS_4lessIS7_EELb1EEENS5_IS9_EEE7destroyEPNS_11__tree_nodeIS9_PvEE, symObjAddr: 0x7080, symBinAddr: 0x10000B1F0, symSize: 0xB0 }
  - { offsetInCU: 0x1715D, offset: 0x1715D, size: 0x8, addend: 0x0, symName: __ZNKSt3__16__treeINS_12__value_typeINS_12basic_stringIcNS_11char_traitsIcEENS_9allocatorIcEEEEPdEENS_19__map_value_compareIS7_S9_NS_4lessIS7_EELb1EEENS5_IS9_EEE6__rootB7v160006Ev, symObjAddr: 0x7130, symBinAddr: 0x10000B2A0, symSize: 0x20 }
  - { offsetInCU: 0x17183, offset: 0x17183, size: 0x8, addend: 0x0, symName: __ZNSt3__16__treeINS_12__value_typeINS_12basic_stringIcNS_11char_traitsIcEENS_9allocatorIcEEEEPdEENS_19__map_value_compareIS7_S9_NS_4lessIS7_EELb1EEENS5_IS9_EEE12__node_allocB7v160006Ev, symObjAddr: 0x7150, symBinAddr: 0x10000B2C0, symSize: 0x20 }
  - { offsetInCU: 0x171A9, offset: 0x171A9, size: 0x8, addend: 0x0, symName: __ZNSt3__116allocator_traitsINS_9allocatorINS_11__tree_nodeINS_12__value_typeINS_12basic_stringIcNS_11char_traitsIcEENS1_IcEEEEPdEEPvEEEEE7destroyB7v160006INS_4pairIKS8_S9_EEvvEEvRSD_PT_, symObjAddr: 0x7170, symBinAddr: 0x10000B2E0, symSize: 0x20 }
  - { offsetInCU: 0x171E4, offset: 0x171E4, size: 0x8, addend: 0x0, symName: __ZNSt3__122__tree_key_value_typesINS_12__value_typeINS_12basic_stringIcNS_11char_traitsIcEENS_9allocatorIcEEEEPdEEE9__get_ptrB7v160006ERS9_, symObjAddr: 0x7190, symBinAddr: 0x10000B300, symSize: 0x20 }
  - { offsetInCU: 0x17208, offset: 0x17208, size: 0x8, addend: 0x0, symName: __ZNSt3__116allocator_traitsINS_9allocatorINS_11__tree_nodeINS_12__value_typeINS_12basic_stringIcNS_11char_traitsIcEENS1_IcEEEEPdEEPvEEEEE10deallocateB7v160006ERSD_PSC_m, symObjAddr: 0x71B0, symBinAddr: 0x10000B320, symSize: 0x30 }
  - { offsetInCU: 0x1724A, offset: 0x1724A, size: 0x8, addend: 0x0, symName: __ZNSt3__117__compressed_pairINS_15__tree_end_nodeIPNS_16__tree_node_baseIPvEEEENS_9allocatorINS_11__tree_nodeINS_12__value_typeINS_12basic_stringIcNS_11char_traitsIcEENS7_IcEEEEPdEES3_EEEEE6secondB7v160006Ev, symObjAddr: 0x71E0, symBinAddr: 0x10000B350, symSize: 0x20 }
  - { offsetInCU: 0x17270, offset: 0x17270, size: 0x8, addend: 0x0, symName: __ZNSt3__122__compressed_pair_elemINS_9allocatorINS_11__tree_nodeINS_12__value_typeINS_12basic_stringIcNS_11char_traitsIcEENS1_IcEEEEPdEEPvEEEELi1ELb1EE5__getB7v160006Ev, symObjAddr: 0x7200, symBinAddr: 0x10000B370, symSize: 0x10 }
  - { offsetInCU: 0x17296, offset: 0x17296, size: 0x8, addend: 0x0, symName: __ZNSt3__14pairIKNS_12basic_stringIcNS_11char_traitsIcEENS_9allocatorIcEEEEPdED1Ev, symObjAddr: 0x7210, symBinAddr: 0x10000B380, symSize: 0x20 }
  - { offsetInCU: 0x172C2, offset: 0x172C2, size: 0x8, addend: 0x0, symName: __ZNSt3__14pairIKNS_12basic_stringIcNS_11char_traitsIcEENS_9allocatorIcEEEEPdED2Ev, symObjAddr: 0x7230, symBinAddr: 0x10000B3A0, symSize: 0x20 }
  - { offsetInCU: 0x172EE, offset: 0x172EE, size: 0x8, addend: 0x0, symName: __ZNSt3__19allocatorINS_11__tree_nodeINS_12__value_typeINS_12basic_stringIcNS_11char_traitsIcEENS0_IcEEEEPdEEPvEEE10deallocateB7v160006EPSB_m, symObjAddr: 0x7250, symBinAddr: 0x10000B3C0, symSize: 0x40 }
  - { offsetInCU: 0x17330, offset: 0x17330, size: 0x8, addend: 0x0, symName: __ZNKSt3__16__treeINS_12__value_typeINS_12basic_stringIcNS_11char_traitsIcEENS_9allocatorIcEEEEPdEENS_19__map_value_compareIS7_S9_NS_4lessIS7_EELb1EEENS5_IS9_EEE10__end_nodeB7v160006Ev, symObjAddr: 0x7290, symBinAddr: 0x10000B400, symSize: 0x30 }
  - { offsetInCU: 0x17356, offset: 0x17356, size: 0x8, addend: 0x0, symName: __ZNKSt3__117__compressed_pairINS_15__tree_end_nodeIPNS_16__tree_node_baseIPvEEEENS_9allocatorINS_11__tree_nodeINS_12__value_typeINS_12basic_stringIcNS_11char_traitsIcEENS7_IcEEEEPdEES3_EEEEE5firstB7v160006Ev, symObjAddr: 0x72C0, symBinAddr: 0x10000B430, symSize: 0x20 }
  - { offsetInCU: 0x1737C, offset: 0x1737C, size: 0x8, addend: 0x0, symName: __ZNSt3__112basic_stringIcNS_11char_traitsIcEENS_9allocatorIcEEEC2B7v160006IDnEEPKc, symObjAddr: 0x72E0, symBinAddr: 0x10000B450, symSize: 0x60 }
  - { offsetInCU: 0x173CE, offset: 0x173CE, size: 0x8, addend: 0x0, symName: __ZNSt3__16__treeINS_12__value_typeINS_12basic_stringIcNS_11char_traitsIcEENS_9allocatorIcEEEEPPdEENS_19__map_value_compareIS7_SA_NS_4lessIS7_EELb1EEENS5_ISA_EEE25__emplace_unique_key_argsIS7_JRKNS_21piecewise_construct_tENS_5tupleIJOS7_EEENSL_IJEEEEEENS_4pairINS_15__tree_iteratorISA_PNS_11__tree_nodeISA_PvEElEEbEERKT_DpOT0_, symObjAddr: 0x7340, symBinAddr: 0x10000B4B0, symSize: 0x100 }
  - { offsetInCU: 0x174AD, offset: 0x174AD, size: 0x8, addend: 0x0, symName: __ZNSt3__16__treeINS_12__value_typeINS_12basic_stringIcNS_11char_traitsIcEENS_9allocatorIcEEEEPPdEENS_19__map_value_compareIS7_SA_NS_4lessIS7_EELb1EEENS5_ISA_EEE12__find_equalIS7_EERPNS_16__tree_node_baseIPvEERPNS_15__tree_end_nodeISL_EERKT_, symObjAddr: 0x7480, symBinAddr: 0x10000B5F0, symSize: 0x180 }
  - { offsetInCU: 0x1751A, offset: 0x1751A, size: 0x8, addend: 0x0, symName: __ZNSt3__16__treeINS_12__value_typeINS_12basic_stringIcNS_11char_traitsIcEENS_9allocatorIcEEEEPPdEENS_19__map_value_compareIS7_SA_NS_4lessIS7_EELb1EEENS5_ISA_EEE16__construct_nodeIJRKNS_21piecewise_construct_tENS_5tupleIJOS7_EEENSL_IJEEEEEENS_10unique_ptrINS_11__tree_nodeISA_PvEENS_22__tree_node_destructorINS5_ISS_EEEEEEDpOT_, symObjAddr: 0x7600, symBinAddr: 0x10000B770, symSize: 0x110 }
  - { offsetInCU: 0x175A3, offset: 0x175A3, size: 0x8, addend: 0x0, symName: __ZNSt3__16__treeINS_12__value_typeINS_12basic_stringIcNS_11char_traitsIcEENS_9allocatorIcEEEEPPdEENS_19__map_value_compareIS7_SA_NS_4lessIS7_EELb1EEENS5_ISA_EEE16__insert_node_atEPNS_15__tree_end_nodeIPNS_16__tree_node_baseIPvEEEERSL_SL_, symObjAddr: 0x7710, symBinAddr: 0x10000B880, symSize: 0xC0 }
  - { offsetInCU: 0x175F8, offset: 0x175F8, size: 0x8, addend: 0x0, symName: __ZNKSt3__110unique_ptrINS_11__tree_nodeINS_12__value_typeINS_12basic_stringIcNS_11char_traitsIcEENS_9allocatorIcEEEEPPdEEPvEENS_22__tree_node_destructorINS6_ISD_EEEEE3getB7v160006Ev, symObjAddr: 0x77D0, symBinAddr: 0x10000B940, symSize: 0x20 }
  - { offsetInCU: 0x1761E, offset: 0x1761E, size: 0x8, addend: 0x0, symName: __ZNSt3__110unique_ptrINS_11__tree_nodeINS_12__value_typeINS_12basic_stringIcNS_11char_traitsIcEENS_9allocatorIcEEEEPPdEEPvEENS_22__tree_node_destructorINS6_ISD_EEEEE7releaseB7v160006Ev, symObjAddr: 0x77F0, symBinAddr: 0x10000B960, symSize: 0x40 }
  - { offsetInCU: 0x17653, offset: 0x17653, size: 0x8, addend: 0x0, symName: __ZNSt3__110unique_ptrINS_11__tree_nodeINS_12__value_typeINS_12basic_stringIcNS_11char_traitsIcEENS_9allocatorIcEEEEPPdEEPvEENS_22__tree_node_destructorINS6_ISD_EEEEED1B7v160006Ev, symObjAddr: 0x7830, symBinAddr: 0x10000B9A0, symSize: 0x20 }
  - { offsetInCU: 0x1767D, offset: 0x1767D, size: 0x8, addend: 0x0, symName: __ZNSt3__115__tree_iteratorINS_12__value_typeINS_12basic_stringIcNS_11char_traitsIcEENS_9allocatorIcEEEEPPdEEPNS_11__tree_nodeISA_PvEElEC1B7v160006ESE_, symObjAddr: 0x7850, symBinAddr: 0x10000B9C0, symSize: 0x30 }
  - { offsetInCU: 0x176BB, offset: 0x176BB, size: 0x8, addend: 0x0, symName: __ZNSt3__14pairINS_15__tree_iteratorINS_12__value_typeINS_12basic_stringIcNS_11char_traitsIcEENS_9allocatorIcEEEEPPdEEPNS_11__tree_nodeISB_PvEElEEbEC1B7v160006ISG_RbLSD_0EEEOT_OT0_, symObjAddr: 0x7880, symBinAddr: 0x10000B9F0, symSize: 0x30 }
  - { offsetInCU: 0x17719, offset: 0x17719, size: 0x8, addend: 0x0, symName: __ZNKSt3__16__treeINS_12__value_typeINS_12basic_stringIcNS_11char_traitsIcEENS_9allocatorIcEEEEPPdEENS_19__map_value_compareIS7_SA_NS_4lessIS7_EELb1EEENS5_ISA_EEE10__root_ptrEv, symObjAddr: 0x78B0, symBinAddr: 0x10000BA20, symSize: 0x20 }
  - { offsetInCU: 0x1773F, offset: 0x1773F, size: 0x8, addend: 0x0, symName: __ZNSt3__16__treeINS_12__value_typeINS_12basic_stringIcNS_11char_traitsIcEENS_9allocatorIcEEEEPPdEENS_19__map_value_compareIS7_SA_NS_4lessIS7_EELb1EEENS5_ISA_EEE10value_compB7v160006Ev, symObjAddr: 0x78D0, symBinAddr: 0x10000BA40, symSize: 0x20 }
  - { offsetInCU: 0x17765, offset: 0x17765, size: 0x8, addend: 0x0, symName: __ZNKSt3__119__map_value_compareINS_12basic_stringIcNS_11char_traitsIcEENS_9allocatorIcEEEENS_12__value_typeIS6_PPdEENS_4lessIS6_EELb1EEclB7v160006ERKS6_RKSA_, symObjAddr: 0x78F0, symBinAddr: 0x10000BA60, symSize: 0x50 }
  - { offsetInCU: 0x177A9, offset: 0x177A9, size: 0x8, addend: 0x0, symName: __ZNKSt3__119__map_value_compareINS_12basic_stringIcNS_11char_traitsIcEENS_9allocatorIcEEEENS_12__value_typeIS6_PPdEENS_4lessIS6_EELb1EEclB7v160006ERKSA_RKS6_, symObjAddr: 0x7940, symBinAddr: 0x10000BAB0, symSize: 0x40 }
  - { offsetInCU: 0x177ED, offset: 0x177ED, size: 0x8, addend: 0x0, symName: __ZNSt3__117__compressed_pairImNS_19__map_value_compareINS_12basic_stringIcNS_11char_traitsIcEENS_9allocatorIcEEEENS_12__value_typeIS7_PPdEENS_4lessIS7_EELb1EEEE6secondB7v160006Ev, symObjAddr: 0x7980, symBinAddr: 0x10000BAF0, symSize: 0x20 }
  - { offsetInCU: 0x17813, offset: 0x17813, size: 0x8, addend: 0x0, symName: __ZNSt3__122__compressed_pair_elemINS_19__map_value_compareINS_12basic_stringIcNS_11char_traitsIcEENS_9allocatorIcEEEENS_12__value_typeIS7_PPdEENS_4lessIS7_EELb1EEELi1ELb1EE5__getB7v160006Ev, symObjAddr: 0x79A0, symBinAddr: 0x10000BB10, symSize: 0x10 }
  - { offsetInCU: 0x17839, offset: 0x17839, size: 0x8, addend: 0x0, symName: __ZNKSt3__14lessINS_12basic_stringIcNS_11char_traitsIcEENS_9allocatorIcEEEEEclB7v160006ERKS6_S9_, symObjAddr: 0x79B0, symBinAddr: 0x10000BB20, symSize: 0x30 }
  - { offsetInCU: 0x1787D, offset: 0x1787D, size: 0x8, addend: 0x0, symName: __ZNKSt3__112__value_typeINS_12basic_stringIcNS_11char_traitsIcEENS_9allocatorIcEEEEPPdE11__get_valueB7v160006Ev, symObjAddr: 0x79E0, symBinAddr: 0x10000BB50, symSize: 0x10 }
  - { offsetInCU: 0x178A3, offset: 0x178A3, size: 0x8, addend: 0x0, symName: __ZNKSt3__112basic_stringIcNS_11char_traitsIcEENS_9allocatorIcEEE7compareB7v160006ERKS5_, symObjAddr: 0x7A20, symBinAddr: 0x10000BB90, symSize: 0x40 }
  - { offsetInCU: 0x178DA, offset: 0x178DA, size: 0x8, addend: 0x0, symName: __ZNKSt3__112basic_stringIcNS_11char_traitsIcEENS_9allocatorIcEEE7compareINS_17basic_string_viewIcS2_EEEENS_9enable_ifIXsr33__can_be_converted_to_string_viewIcS2_T_EE5valueEiE4typeERKSA_, symObjAddr: 0x7A60, symBinAddr: 0x10000BBD0, symSize: 0xF0 }
  - { offsetInCU: 0x17957, offset: 0x17957, size: 0x8, addend: 0x0, symName: __ZNKSt3__112basic_stringIcNS_11char_traitsIcEENS_9allocatorIcEEEcvNS_17basic_string_viewIcS2_EEB7v160006Ev, symObjAddr: 0x7B50, symBinAddr: 0x10000BCC0, symSize: 0x50 }
  - { offsetInCU: 0x1797D, offset: 0x1797D, size: 0x8, addend: 0x0, symName: __ZNKSt3__117basic_string_viewIcNS_11char_traitsIcEEE4sizeB7v160006Ev, symObjAddr: 0x7BA0, symBinAddr: 0x10000BD10, symSize: 0x20 }
  - { offsetInCU: 0x179A3, offset: 0x179A3, size: 0x8, addend: 0x0, symName: __ZNSt3__111char_traitsIcE7compareEPKcS3_m, symObjAddr: 0x7BC0, symBinAddr: 0x10000BD30, symSize: 0x60 }
  - { offsetInCU: 0x179E2, offset: 0x179E2, size: 0x8, addend: 0x0, symName: __ZNKSt3__117basic_string_viewIcNS_11char_traitsIcEEE4dataB7v160006Ev, symObjAddr: 0x7C20, symBinAddr: 0x10000BD90, symSize: 0x20 }
  - { offsetInCU: 0x17A08, offset: 0x17A08, size: 0x8, addend: 0x0, symName: __ZNSt3__117basic_string_viewIcNS_11char_traitsIcEEEC1B7v160006EPKcm, symObjAddr: 0x7C70, symBinAddr: 0x10000BDE0, symSize: 0x30 }
  - { offsetInCU: 0x17A50, offset: 0x17A50, size: 0x8, addend: 0x0, symName: __ZNSt3__117basic_string_viewIcNS_11char_traitsIcEEEC2B7v160006EPKcm, symObjAddr: 0x7CA0, symBinAddr: 0x10000BE10, symSize: 0x50 }
  - { offsetInCU: 0x17A98, offset: 0x17A98, size: 0x8, addend: 0x0, symName: __ZNSt3__116allocator_traitsINS_9allocatorINS_11__tree_nodeINS_12__value_typeINS_12basic_stringIcNS_11char_traitsIcEENS1_IcEEEEPPdEEPvEEEEE8allocateB7v160006ERSE_m, symObjAddr: 0x7CF0, symBinAddr: 0x10000BE60, symSize: 0x30 }
  - { offsetInCU: 0x17ACB, offset: 0x17ACB, size: 0x8, addend: 0x0, symName: __ZNSt3__122__tree_node_destructorINS_9allocatorINS_11__tree_nodeINS_12__value_typeINS_12basic_stringIcNS_11char_traitsIcEENS1_IcEEEEPPdEEPvEEEEEC1B7v160006ERSE_b, symObjAddr: 0x7D20, symBinAddr: 0x10000BE90, symSize: 0x40 }
  - { offsetInCU: 0x17B18, offset: 0x17B18, size: 0x8, addend: 0x0, symName: __ZNSt3__110unique_ptrINS_11__tree_nodeINS_12__value_typeINS_12basic_stringIcNS_11char_traitsIcEENS_9allocatorIcEEEEPPdEEPvEENS_22__tree_node_destructorINS6_ISD_EEEEEC1B7v160006ILb1EvEEPSD_NS_16__dependent_typeINS_27__unique_ptr_deleter_sfinaeISG_EEXT_EE20__good_rval_ref_typeE, symObjAddr: 0x7D60, symBinAddr: 0x10000BED0, symSize: 0x30 }
  - { offsetInCU: 0x17B69, offset: 0x17B69, size: 0x8, addend: 0x0, symName: __ZNSt3__116allocator_traitsINS_9allocatorINS_11__tree_nodeINS_12__value_typeINS_12basic_stringIcNS_11char_traitsIcEENS1_IcEEEEPPdEEPvEEEEE9constructB7v160006INS_4pairIKS8_SA_EEJRKNS_21piecewise_construct_tENS_5tupleIJOS8_EEENSN_IJEEEEvEEvRSE_PT_DpOT0_, symObjAddr: 0x7D90, symBinAddr: 0x10000BF00, symSize: 0x40 }
  - { offsetInCU: 0x17BE8, offset: 0x17BE8, size: 0x8, addend: 0x0, symName: __ZNKSt3__110unique_ptrINS_11__tree_nodeINS_12__value_typeINS_12basic_stringIcNS_11char_traitsIcEENS_9allocatorIcEEEEPPdEEPvEENS_22__tree_node_destructorINS6_ISD_EEEEEptB7v160006Ev, symObjAddr: 0x7DD0, symBinAddr: 0x10000BF40, symSize: 0x20 }
  - { offsetInCU: 0x17C0E, offset: 0x17C0E, size: 0x8, addend: 0x0, symName: __ZNSt3__110unique_ptrINS_11__tree_nodeINS_12__value_typeINS_12basic_stringIcNS_11char_traitsIcEENS_9allocatorIcEEEEPPdEEPvEENS_22__tree_node_destructorINS6_ISD_EEEEE11get_deleterB7v160006Ev, symObjAddr: 0x7DF0, symBinAddr: 0x10000BF60, symSize: 0x20 }
  - { offsetInCU: 0x17C34, offset: 0x17C34, size: 0x8, addend: 0x0, symName: __ZNSt3__19allocatorINS_11__tree_nodeINS_12__value_typeINS_12basic_stringIcNS_11char_traitsIcEENS0_IcEEEEPPdEEPvEEE8allocateB7v160006Em, symObjAddr: 0x7E10, symBinAddr: 0x10000BF80, symSize: 0x50 }
  - { offsetInCU: 0x17C72, offset: 0x17C72, size: 0x8, addend: 0x0, symName: __ZNSt3__116allocator_traitsINS_9allocatorINS_11__tree_nodeINS_12__value_typeINS_12basic_stringIcNS_11char_traitsIcEENS1_IcEEEEPPdEEPvEEEEE8max_sizeB7v160006ISE_vEEmRKSE_, symObjAddr: 0x7E60, symBinAddr: 0x10000BFD0, symSize: 0x20 }
  - { offsetInCU: 0x17CA0, offset: 0x17CA0, size: 0x8, addend: 0x0, symName: __ZNKSt3__19allocatorINS_11__tree_nodeINS_12__value_typeINS_12basic_stringIcNS_11char_traitsIcEENS0_IcEEEEPPdEEPvEEE8max_sizeB7v160006Ev, symObjAddr: 0x7E80, symBinAddr: 0x10000BFF0, symSize: 0x20 }
  - { offsetInCU: 0x17CC6, offset: 0x17CC6, size: 0x8, addend: 0x0, symName: __ZNSt3__122__tree_node_destructorINS_9allocatorINS_11__tree_nodeINS_12__value_typeINS_12basic_stringIcNS_11char_traitsIcEENS1_IcEEEEPPdEEPvEEEEEC2B7v160006ERSE_b, symObjAddr: 0x7EA0, symBinAddr: 0x10000C010, symSize: 0x30 }
  - { offsetInCU: 0x17D0E, offset: 0x17D0E, size: 0x8, addend: 0x0, symName: __ZNSt3__110unique_ptrINS_11__tree_nodeINS_12__value_typeINS_12basic_stringIcNS_11char_traitsIcEENS_9allocatorIcEEEEPPdEEPvEENS_22__tree_node_destructorINS6_ISD_EEEEEC2B7v160006ILb1EvEEPSD_NS_16__dependent_typeINS_27__unique_ptr_deleter_sfinaeISG_EEXT_EE20__good_rval_ref_typeE, symObjAddr: 0x7ED0, symBinAddr: 0x10000C040, symSize: 0x40 }
  - { offsetInCU: 0x17D5F, offset: 0x17D5F, size: 0x8, addend: 0x0, symName: __ZNSt3__117__compressed_pairIPNS_11__tree_nodeINS_12__value_typeINS_12basic_stringIcNS_11char_traitsIcEENS_9allocatorIcEEEEPPdEEPvEENS_22__tree_node_destructorINS6_ISD_EEEEEC1B7v160006IRSE_SH_EEOT_OT0_, symObjAddr: 0x7F10, symBinAddr: 0x10000C080, symSize: 0x30 }
  - { offsetInCU: 0x17DB7, offset: 0x17DB7, size: 0x8, addend: 0x0, symName: __ZNSt3__117__compressed_pairIPNS_11__tree_nodeINS_12__value_typeINS_12basic_stringIcNS_11char_traitsIcEENS_9allocatorIcEEEEPPdEEPvEENS_22__tree_node_destructorINS6_ISD_EEEEEC2B7v160006IRSE_SH_EEOT_OT0_, symObjAddr: 0x7F40, symBinAddr: 0x10000C0B0, symSize: 0x40 }
  - { offsetInCU: 0x17E0F, offset: 0x17E0F, size: 0x8, addend: 0x0, symName: __ZNSt3__122__compressed_pair_elemIPNS_11__tree_nodeINS_12__value_typeINS_12basic_stringIcNS_11char_traitsIcEENS_9allocatorIcEEEEPPdEEPvEELi0ELb0EEC2B7v160006IRSE_vEEOT_, symObjAddr: 0x7F80, symBinAddr: 0x10000C0F0, symSize: 0x20 }
  - { offsetInCU: 0x17E51, offset: 0x17E51, size: 0x8, addend: 0x0, symName: __ZNSt3__122__compressed_pair_elemINS_22__tree_node_destructorINS_9allocatorINS_11__tree_nodeINS_12__value_typeINS_12basic_stringIcNS_11char_traitsIcEENS2_IcEEEEPPdEEPvEEEEEELi1ELb0EEC2B7v160006ISG_vEEOT_, symObjAddr: 0x7FA0, symBinAddr: 0x10000C110, symSize: 0x30 }
  - { offsetInCU: 0x17E93, offset: 0x17E93, size: 0x8, addend: 0x0, symName: __ZNSt3__19allocatorINS_11__tree_nodeINS_12__value_typeINS_12basic_stringIcNS_11char_traitsIcEENS0_IcEEEEPPdEEPvEEE9constructB7v160006INS_4pairIKS7_S9_EEJRKNS_21piecewise_construct_tENS_5tupleIJOS7_EEENSL_IJEEEEEEvPT_DpOT0_, symObjAddr: 0x7FD0, symBinAddr: 0x10000C140, symSize: 0x40 }
  - { offsetInCU: 0x17F0F, offset: 0x17F0F, size: 0x8, addend: 0x0, symName: __ZNSt3__14pairIKNS_12basic_stringIcNS_11char_traitsIcEENS_9allocatorIcEEEEPPdEC1B7v160006IJOS6_EJEEENS_21piecewise_construct_tENS_5tupleIJDpT_EEENSE_IJDpT0_EEE, symObjAddr: 0x8010, symBinAddr: 0x10000C180, symSize: 0x40 }
  - { offsetInCU: 0x17F76, offset: 0x17F76, size: 0x8, addend: 0x0, symName: __ZNSt3__14pairIKNS_12basic_stringIcNS_11char_traitsIcEENS_9allocatorIcEEEEPPdEC1B7v160006IJOS6_EJEJLm0EEJEEENS_21piecewise_construct_tERNS_5tupleIJDpT_EEERNSE_IJDpT0_EEENS_15__tuple_indicesIJXspT1_EEEENSN_IJXspT2_EEEE, symObjAddr: 0x8050, symBinAddr: 0x10000C1C0, symSize: 0x30 }
  - { offsetInCU: 0x18006, offset: 0x18006, size: 0x8, addend: 0x0, symName: __ZNSt3__14pairIKNS_12basic_stringIcNS_11char_traitsIcEENS_9allocatorIcEEEEPPdEC2B7v160006IJOS6_EJEJLm0EEJEEENS_21piecewise_construct_tERNS_5tupleIJDpT_EEERNSE_IJDpT0_EEENS_15__tuple_indicesIJXspT1_EEEENSN_IJXspT2_EEEE, symObjAddr: 0x8080, symBinAddr: 0x10000C1F0, symSize: 0x50 }
  - { offsetInCU: 0x18096, offset: 0x18096, size: 0x8, addend: 0x0, symName: __ZNSt3__112basic_stringIcNS_11char_traitsIcEENS_9allocatorIcEEEC1B7v160006EOS5_, symObjAddr: 0x80F0, symBinAddr: 0x10000C260, symSize: 0x30 }
  - { offsetInCU: 0x180CF, offset: 0x180CF, size: 0x8, addend: 0x0, symName: __ZNSt3__112__tuple_leafILm0EONS_12basic_stringIcNS_11char_traitsIcEENS_9allocatorIcEEEELb0EE3getB7v160006Ev, symObjAddr: 0x8120, symBinAddr: 0x10000C290, symSize: 0x20 }
  - { offsetInCU: 0x180F5, offset: 0x180F5, size: 0x8, addend: 0x0, symName: __ZNSt3__112basic_stringIcNS_11char_traitsIcEENS_9allocatorIcEEEC2B7v160006EOS5_, symObjAddr: 0x8140, symBinAddr: 0x10000C2B0, symSize: 0x80 }
  - { offsetInCU: 0x1812E, offset: 0x1812E, size: 0x8, addend: 0x0, symName: __ZNKSt3__117__compressed_pairIPNS_11__tree_nodeINS_12__value_typeINS_12basic_stringIcNS_11char_traitsIcEENS_9allocatorIcEEEEPPdEEPvEENS_22__tree_node_destructorINS6_ISD_EEEEE5firstB7v160006Ev, symObjAddr: 0x81D0, symBinAddr: 0x10000C340, symSize: 0x20 }
  - { offsetInCU: 0x18154, offset: 0x18154, size: 0x8, addend: 0x0, symName: __ZNKSt3__122__compressed_pair_elemIPNS_11__tree_nodeINS_12__value_typeINS_12basic_stringIcNS_11char_traitsIcEENS_9allocatorIcEEEEPPdEEPvEELi0ELb0EE5__getB7v160006Ev, symObjAddr: 0x81F0, symBinAddr: 0x10000C360, symSize: 0x10 }
  - { offsetInCU: 0x1817A, offset: 0x1817A, size: 0x8, addend: 0x0, symName: __ZNSt3__117__compressed_pairIPNS_11__tree_nodeINS_12__value_typeINS_12basic_stringIcNS_11char_traitsIcEENS_9allocatorIcEEEEPPdEEPvEENS_22__tree_node_destructorINS6_ISD_EEEEE6secondB7v160006Ev, symObjAddr: 0x8200, symBinAddr: 0x10000C370, symSize: 0x20 }
  - { offsetInCU: 0x181A0, offset: 0x181A0, size: 0x8, addend: 0x0, symName: __ZNSt3__122__compressed_pair_elemINS_22__tree_node_destructorINS_9allocatorINS_11__tree_nodeINS_12__value_typeINS_12basic_stringIcNS_11char_traitsIcEENS2_IcEEEEPPdEEPvEEEEEELi1ELb0EE5__getB7v160006Ev, symObjAddr: 0x8220, symBinAddr: 0x10000C390, symSize: 0x10 }
  - { offsetInCU: 0x181C6, offset: 0x181C6, size: 0x8, addend: 0x0, symName: __ZNSt3__16__treeINS_12__value_typeINS_12basic_stringIcNS_11char_traitsIcEENS_9allocatorIcEEEEPPdEENS_19__map_value_compareIS7_SA_NS_4lessIS7_EELb1EEENS5_ISA_EEE4sizeB7v160006Ev, symObjAddr: 0x8470, symBinAddr: 0x10000C5E0, symSize: 0x20 }
  - { offsetInCU: 0x181EC, offset: 0x181EC, size: 0x8, addend: 0x0, symName: __ZNSt3__116__tree_node_baseIPvE12__set_parentB7v160006EPS2_, symObjAddr: 0x8620, symBinAddr: 0x10000C790, symSize: 0x20 }
  - { offsetInCU: 0x18221, offset: 0x18221, size: 0x8, addend: 0x0, symName: __ZNSt3__117__compressed_pairImNS_19__map_value_compareINS_12basic_stringIcNS_11char_traitsIcEENS_9allocatorIcEEEENS_12__value_typeIS7_PPdEENS_4lessIS7_EELb1EEEE5firstB7v160006Ev, symObjAddr: 0x8640, symBinAddr: 0x10000C7B0, symSize: 0x20 }
  - { offsetInCU: 0x18247, offset: 0x18247, size: 0x8, addend: 0x0, symName: __ZNSt3__122__compressed_pair_elemImLi0ELb0EE5__getB7v160006Ev, symObjAddr: 0x8660, symBinAddr: 0x10000C7D0, symSize: 0x10 }
  - { offsetInCU: 0x1826D, offset: 0x1826D, size: 0x8, addend: 0x0, symName: __ZNSt3__117__compressed_pairIPNS_11__tree_nodeINS_12__value_typeINS_12basic_stringIcNS_11char_traitsIcEENS_9allocatorIcEEEEPPdEEPvEENS_22__tree_node_destructorINS6_ISD_EEEEE5firstB7v160006Ev, symObjAddr: 0x8670, symBinAddr: 0x10000C7E0, symSize: 0x20 }
  - { offsetInCU: 0x18293, offset: 0x18293, size: 0x8, addend: 0x0, symName: __ZNSt3__122__compressed_pair_elemIPNS_11__tree_nodeINS_12__value_typeINS_12basic_stringIcNS_11char_traitsIcEENS_9allocatorIcEEEEPPdEEPvEELi0ELb0EE5__getB7v160006Ev, symObjAddr: 0x8690, symBinAddr: 0x10000C800, symSize: 0x10 }
  - { offsetInCU: 0x182B9, offset: 0x182B9, size: 0x8, addend: 0x0, symName: __ZNSt3__110unique_ptrINS_11__tree_nodeINS_12__value_typeINS_12basic_stringIcNS_11char_traitsIcEENS_9allocatorIcEEEEPPdEEPvEENS_22__tree_node_destructorINS6_ISD_EEEEED2B7v160006Ev, symObjAddr: 0x86A0, symBinAddr: 0x10000C810, symSize: 0x20 }
  - { offsetInCU: 0x182E3, offset: 0x182E3, size: 0x8, addend: 0x0, symName: __ZNSt3__110unique_ptrINS_11__tree_nodeINS_12__value_typeINS_12basic_stringIcNS_11char_traitsIcEENS_9allocatorIcEEEEPPdEEPvEENS_22__tree_node_destructorINS6_ISD_EEEEE5resetB7v160006EPSD_, symObjAddr: 0x86C0, symBinAddr: 0x10000C830, symSize: 0x70 }
  - { offsetInCU: 0x18327, offset: 0x18327, size: 0x8, addend: 0x0, symName: __ZNSt3__122__tree_node_destructorINS_9allocatorINS_11__tree_nodeINS_12__value_typeINS_12basic_stringIcNS_11char_traitsIcEENS1_IcEEEEPPdEEPvEEEEEclB7v160006EPSD_, symObjAddr: 0x8730, symBinAddr: 0x10000C8A0, symSize: 0x70 }
  - { offsetInCU: 0x1835C, offset: 0x1835C, size: 0x8, addend: 0x0, symName: __ZNSt3__115__tree_iteratorINS_12__value_typeINS_12basic_stringIcNS_11char_traitsIcEENS_9allocatorIcEEEEPPdEEPNS_11__tree_nodeISA_PvEElEC2B7v160006ESE_, symObjAddr: 0x87A0, symBinAddr: 0x10000C910, symSize: 0x20 }
  - { offsetInCU: 0x18395, offset: 0x18395, size: 0x8, addend: 0x0, symName: __ZNSt3__14pairINS_15__tree_iteratorINS_12__value_typeINS_12basic_stringIcNS_11char_traitsIcEENS_9allocatorIcEEEEPPdEEPNS_11__tree_nodeISB_PvEElEEbEC2B7v160006ISG_RbLSD_0EEEOT_OT0_, symObjAddr: 0x87C0, symBinAddr: 0x10000C930, symSize: 0x30 }
  - { offsetInCU: 0x183F3, offset: 0x183F3, size: 0x8, addend: 0x0, symName: __ZNSt3__15tupleIJONS_12basic_stringIcNS_11char_traitsIcEENS_9allocatorIcEEEEEEC1B7v160006IJS6_ELi0EEEDpOT_, symObjAddr: 0x87F0, symBinAddr: 0x10000C960, symSize: 0x30 }
  - { offsetInCU: 0x1843D, offset: 0x1843D, size: 0x8, addend: 0x0, symName: __ZNSt3__15tupleIJONS_12basic_stringIcNS_11char_traitsIcEENS_9allocatorIcEEEEEEC2B7v160006IJS6_ELi0EEEDpOT_, symObjAddr: 0x8820, symBinAddr: 0x10000C990, symSize: 0x30 }
  - { offsetInCU: 0x18487, offset: 0x18487, size: 0x8, addend: 0x0, symName: __ZNSt3__112__tuple_implINS_15__tuple_indicesIJLm0EEEEJONS_12basic_stringIcNS_11char_traitsIcEENS_9allocatorIcEEEEEEC1B7v160006IJLm0EEJS9_EJEJEJS8_EEENS1_IJXspT_EEEENS_13__tuple_typesIJDpT0_EEENS1_IJXspT1_EEEENSD_IJDpT2_EEEDpOT3_, symObjAddr: 0x8850, symBinAddr: 0x10000C9C0, symSize: 0x30 }
  - { offsetInCU: 0x1851C, offset: 0x1851C, size: 0x8, addend: 0x0, symName: __ZNSt3__112__tuple_implINS_15__tuple_indicesIJLm0EEEEJONS_12basic_stringIcNS_11char_traitsIcEENS_9allocatorIcEEEEEEC2B7v160006IJLm0EEJS9_EJEJEJS8_EEENS1_IJXspT_EEEENS_13__tuple_typesIJDpT0_EEENS1_IJXspT1_EEEENSD_IJDpT2_EEEDpOT3_, symObjAddr: 0x8880, symBinAddr: 0x10000C9F0, symSize: 0x30 }
  - { offsetInCU: 0x185B1, offset: 0x185B1, size: 0x8, addend: 0x0, symName: __ZNSt3__112__tuple_leafILm0EONS_12basic_stringIcNS_11char_traitsIcEENS_9allocatorIcEEEELb0EEC2B7v160006IS6_vEEOT_, symObjAddr: 0x88B0, symBinAddr: 0x10000CA20, symSize: 0x20 }
  - { offsetInCU: 0x185F4, offset: 0x185F4, size: 0x8, addend: 0x0, symName: __ZNSt3__16__treeINS_12__value_typeINS_12basic_stringIcNS_11char_traitsIcEENS_9allocatorIcEEEEPdEENS_19__map_value_compareIS7_S9_NS_4lessIS7_EELb1EEENS5_IS9_EEE25__emplace_unique_key_argsIS7_JRKNS_21piecewise_construct_tENS_5tupleIJOS7_EEENSK_IJEEEEEENS_4pairINS_15__tree_iteratorIS9_PNS_11__tree_nodeIS9_PvEElEEbEERKT_DpOT0_, symObjAddr: 0x88D0, symBinAddr: 0x10000CA40, symSize: 0x100 }
  - { offsetInCU: 0x186D3, offset: 0x186D3, size: 0x8, addend: 0x0, symName: __ZNSt3__16__treeINS_12__value_typeINS_12basic_stringIcNS_11char_traitsIcEENS_9allocatorIcEEEEPdEENS_19__map_value_compareIS7_S9_NS_4lessIS7_EELb1EEENS5_IS9_EEE12__find_equalIS7_EERPNS_16__tree_node_baseIPvEERPNS_15__tree_end_nodeISK_EERKT_, symObjAddr: 0x89D0, symBinAddr: 0x10000CB40, symSize: 0x180 }
  - { offsetInCU: 0x18740, offset: 0x18740, size: 0x8, addend: 0x0, symName: __ZNSt3__16__treeINS_12__value_typeINS_12basic_stringIcNS_11char_traitsIcEENS_9allocatorIcEEEEPdEENS_19__map_value_compareIS7_S9_NS_4lessIS7_EELb1EEENS5_IS9_EEE16__construct_nodeIJRKNS_21piecewise_construct_tENS_5tupleIJOS7_EEENSK_IJEEEEEENS_10unique_ptrINS_11__tree_nodeIS9_PvEENS_22__tree_node_destructorINS5_ISR_EEEEEEDpOT_, symObjAddr: 0x8B50, symBinAddr: 0x10000CCC0, symSize: 0x110 }
  - { offsetInCU: 0x187C9, offset: 0x187C9, size: 0x8, addend: 0x0, symName: __ZNSt3__16__treeINS_12__value_typeINS_12basic_stringIcNS_11char_traitsIcEENS_9allocatorIcEEEEPdEENS_19__map_value_compareIS7_S9_NS_4lessIS7_EELb1EEENS5_IS9_EEE16__insert_node_atEPNS_15__tree_end_nodeIPNS_16__tree_node_baseIPvEEEERSK_SK_, symObjAddr: 0x8C60, symBinAddr: 0x10000CDD0, symSize: 0xC0 }
  - { offsetInCU: 0x1881E, offset: 0x1881E, size: 0x8, addend: 0x0, symName: __ZNKSt3__110unique_ptrINS_11__tree_nodeINS_12__value_typeINS_12basic_stringIcNS_11char_traitsIcEENS_9allocatorIcEEEEPdEEPvEENS_22__tree_node_destructorINS6_ISC_EEEEE3getB7v160006Ev, symObjAddr: 0x8D20, symBinAddr: 0x10000CE90, symSize: 0x20 }
  - { offsetInCU: 0x18844, offset: 0x18844, size: 0x8, addend: 0x0, symName: __ZNSt3__110unique_ptrINS_11__tree_nodeINS_12__value_typeINS_12basic_stringIcNS_11char_traitsIcEENS_9allocatorIcEEEEPdEEPvEENS_22__tree_node_destructorINS6_ISC_EEEEE7releaseB7v160006Ev, symObjAddr: 0x8D40, symBinAddr: 0x10000CEB0, symSize: 0x40 }
  - { offsetInCU: 0x18879, offset: 0x18879, size: 0x8, addend: 0x0, symName: __ZNSt3__110unique_ptrINS_11__tree_nodeINS_12__value_typeINS_12basic_stringIcNS_11char_traitsIcEENS_9allocatorIcEEEEPdEEPvEENS_22__tree_node_destructorINS6_ISC_EEEEED1B7v160006Ev, symObjAddr: 0x8D80, symBinAddr: 0x10000CEF0, symSize: 0x20 }
  - { offsetInCU: 0x188A3, offset: 0x188A3, size: 0x8, addend: 0x0, symName: __ZNSt3__115__tree_iteratorINS_12__value_typeINS_12basic_stringIcNS_11char_traitsIcEENS_9allocatorIcEEEEPdEEPNS_11__tree_nodeIS9_PvEElEC1B7v160006ESD_, symObjAddr: 0x8DA0, symBinAddr: 0x10000CF10, symSize: 0x30 }
  - { offsetInCU: 0x188E1, offset: 0x188E1, size: 0x8, addend: 0x0, symName: __ZNSt3__14pairINS_15__tree_iteratorINS_12__value_typeINS_12basic_stringIcNS_11char_traitsIcEENS_9allocatorIcEEEEPdEEPNS_11__tree_nodeISA_PvEElEEbEC1B7v160006ISF_RbLSC_0EEEOT_OT0_, symObjAddr: 0x8DD0, symBinAddr: 0x10000CF40, symSize: 0x30 }
  - { offsetInCU: 0x1893F, offset: 0x1893F, size: 0x8, addend: 0x0, symName: __ZNKSt3__16__treeINS_12__value_typeINS_12basic_stringIcNS_11char_traitsIcEENS_9allocatorIcEEEEPdEENS_19__map_value_compareIS7_S9_NS_4lessIS7_EELb1EEENS5_IS9_EEE10__root_ptrEv, symObjAddr: 0x8E00, symBinAddr: 0x10000CF70, symSize: 0x20 }
  - { offsetInCU: 0x18965, offset: 0x18965, size: 0x8, addend: 0x0, symName: __ZNSt3__16__treeINS_12__value_typeINS_12basic_stringIcNS_11char_traitsIcEENS_9allocatorIcEEEEPdEENS_19__map_value_compareIS7_S9_NS_4lessIS7_EELb1EEENS5_IS9_EEE10value_compB7v160006Ev, symObjAddr: 0x8E20, symBinAddr: 0x10000CF90, symSize: 0x20 }
  - { offsetInCU: 0x1898B, offset: 0x1898B, size: 0x8, addend: 0x0, symName: __ZNKSt3__119__map_value_compareINS_12basic_stringIcNS_11char_traitsIcEENS_9allocatorIcEEEENS_12__value_typeIS6_PdEENS_4lessIS6_EELb1EEclB7v160006ERKS6_RKS9_, symObjAddr: 0x8E40, symBinAddr: 0x10000CFB0, symSize: 0x50 }
  - { offsetInCU: 0x189CF, offset: 0x189CF, size: 0x8, addend: 0x0, symName: __ZNKSt3__119__map_value_compareINS_12basic_stringIcNS_11char_traitsIcEENS_9allocatorIcEEEENS_12__value_typeIS6_PdEENS_4lessIS6_EELb1EEclB7v160006ERKS9_RKS6_, symObjAddr: 0x8E90, symBinAddr: 0x10000D000, symSize: 0x40 }
  - { offsetInCU: 0x18A13, offset: 0x18A13, size: 0x8, addend: 0x0, symName: __ZNSt3__117__compressed_pairImNS_19__map_value_compareINS_12basic_stringIcNS_11char_traitsIcEENS_9allocatorIcEEEENS_12__value_typeIS7_PdEENS_4lessIS7_EELb1EEEE6secondB7v160006Ev, symObjAddr: 0x8ED0, symBinAddr: 0x10000D040, symSize: 0x20 }
  - { offsetInCU: 0x18A39, offset: 0x18A39, size: 0x8, addend: 0x0, symName: __ZNSt3__122__compressed_pair_elemINS_19__map_value_compareINS_12basic_stringIcNS_11char_traitsIcEENS_9allocatorIcEEEENS_12__value_typeIS7_PdEENS_4lessIS7_EELb1EEELi1ELb1EE5__getB7v160006Ev, symObjAddr: 0x8EF0, symBinAddr: 0x10000D060, symSize: 0x10 }
  - { offsetInCU: 0x18A5F, offset: 0x18A5F, size: 0x8, addend: 0x0, symName: __ZNKSt3__112__value_typeINS_12basic_stringIcNS_11char_traitsIcEENS_9allocatorIcEEEEPdE11__get_valueB7v160006Ev, symObjAddr: 0x8F00, symBinAddr: 0x10000D070, symSize: 0x10 }
  - { offsetInCU: 0x18A85, offset: 0x18A85, size: 0x8, addend: 0x0, symName: __ZNSt3__116allocator_traitsINS_9allocatorINS_11__tree_nodeINS_12__value_typeINS_12basic_stringIcNS_11char_traitsIcEENS1_IcEEEEPdEEPvEEEEE8allocateB7v160006ERSD_m, symObjAddr: 0x8F10, symBinAddr: 0x10000D080, symSize: 0x30 }
  - { offsetInCU: 0x18AB8, offset: 0x18AB8, size: 0x8, addend: 0x0, symName: __ZNSt3__122__tree_node_destructorINS_9allocatorINS_11__tree_nodeINS_12__value_typeINS_12basic_stringIcNS_11char_traitsIcEENS1_IcEEEEPdEEPvEEEEEC1B7v160006ERSD_b, symObjAddr: 0x8F40, symBinAddr: 0x10000D0B0, symSize: 0x40 }
  - { offsetInCU: 0x18B05, offset: 0x18B05, size: 0x8, addend: 0x0, symName: __ZNSt3__110unique_ptrINS_11__tree_nodeINS_12__value_typeINS_12basic_stringIcNS_11char_traitsIcEENS_9allocatorIcEEEEPdEEPvEENS_22__tree_node_destructorINS6_ISC_EEEEEC1B7v160006ILb1EvEEPSC_NS_16__dependent_typeINS_27__unique_ptr_deleter_sfinaeISF_EEXT_EE20__good_rval_ref_typeE, symObjAddr: 0x8F80, symBinAddr: 0x10000D0F0, symSize: 0x30 }
  - { offsetInCU: 0x18B56, offset: 0x18B56, size: 0x8, addend: 0x0, symName: __ZNSt3__116allocator_traitsINS_9allocatorINS_11__tree_nodeINS_12__value_typeINS_12basic_stringIcNS_11char_traitsIcEENS1_IcEEEEPdEEPvEEEEE9constructB7v160006INS_4pairIKS8_S9_EEJRKNS_21piecewise_construct_tENS_5tupleIJOS8_EEENSM_IJEEEEvEEvRSD_PT_DpOT0_, symObjAddr: 0x8FB0, symBinAddr: 0x10000D120, symSize: 0x40 }
  - { offsetInCU: 0x18BD5, offset: 0x18BD5, size: 0x8, addend: 0x0, symName: __ZNKSt3__110unique_ptrINS_11__tree_nodeINS_12__value_typeINS_12basic_stringIcNS_11char_traitsIcEENS_9allocatorIcEEEEPdEEPvEENS_22__tree_node_destructorINS6_ISC_EEEEEptB7v160006Ev, symObjAddr: 0x8FF0, symBinAddr: 0x10000D160, symSize: 0x20 }
  - { offsetInCU: 0x18BFB, offset: 0x18BFB, size: 0x8, addend: 0x0, symName: __ZNSt3__110unique_ptrINS_11__tree_nodeINS_12__value_typeINS_12basic_stringIcNS_11char_traitsIcEENS_9allocatorIcEEEEPdEEPvEENS_22__tree_node_destructorINS6_ISC_EEEEE11get_deleterB7v160006Ev, symObjAddr: 0x9010, symBinAddr: 0x10000D180, symSize: 0x20 }
  - { offsetInCU: 0x18C21, offset: 0x18C21, size: 0x8, addend: 0x0, symName: __ZNSt3__19allocatorINS_11__tree_nodeINS_12__value_typeINS_12basic_stringIcNS_11char_traitsIcEENS0_IcEEEEPdEEPvEEE8allocateB7v160006Em, symObjAddr: 0x9030, symBinAddr: 0x10000D1A0, symSize: 0x50 }
  - { offsetInCU: 0x18C5F, offset: 0x18C5F, size: 0x8, addend: 0x0, symName: __ZNSt3__116allocator_traitsINS_9allocatorINS_11__tree_nodeINS_12__value_typeINS_12basic_stringIcNS_11char_traitsIcEENS1_IcEEEEPdEEPvEEEEE8max_sizeB7v160006ISD_vEEmRKSD_, symObjAddr: 0x9080, symBinAddr: 0x10000D1F0, symSize: 0x20 }
  - { offsetInCU: 0x18C8D, offset: 0x18C8D, size: 0x8, addend: 0x0, symName: __ZNKSt3__19allocatorINS_11__tree_nodeINS_12__value_typeINS_12basic_stringIcNS_11char_traitsIcEENS0_IcEEEEPdEEPvEEE8max_sizeB7v160006Ev, symObjAddr: 0x90A0, symBinAddr: 0x10000D210, symSize: 0x20 }
  - { offsetInCU: 0x18CB3, offset: 0x18CB3, size: 0x8, addend: 0x0, symName: __ZNSt3__122__tree_node_destructorINS_9allocatorINS_11__tree_nodeINS_12__value_typeINS_12basic_stringIcNS_11char_traitsIcEENS1_IcEEEEPdEEPvEEEEEC2B7v160006ERSD_b, symObjAddr: 0x90C0, symBinAddr: 0x10000D230, symSize: 0x30 }
  - { offsetInCU: 0x18CFB, offset: 0x18CFB, size: 0x8, addend: 0x0, symName: __ZNSt3__110unique_ptrINS_11__tree_nodeINS_12__value_typeINS_12basic_stringIcNS_11char_traitsIcEENS_9allocatorIcEEEEPdEEPvEENS_22__tree_node_destructorINS6_ISC_EEEEEC2B7v160006ILb1EvEEPSC_NS_16__dependent_typeINS_27__unique_ptr_deleter_sfinaeISF_EEXT_EE20__good_rval_ref_typeE, symObjAddr: 0x90F0, symBinAddr: 0x10000D260, symSize: 0x40 }
  - { offsetInCU: 0x18D4C, offset: 0x18D4C, size: 0x8, addend: 0x0, symName: __ZNSt3__117__compressed_pairIPNS_11__tree_nodeINS_12__value_typeINS_12basic_stringIcNS_11char_traitsIcEENS_9allocatorIcEEEEPdEEPvEENS_22__tree_node_destructorINS6_ISC_EEEEEC1B7v160006IRSD_SG_EEOT_OT0_, symObjAddr: 0x9130, symBinAddr: 0x10000D2A0, symSize: 0x30 }
  - { offsetInCU: 0x18DA4, offset: 0x18DA4, size: 0x8, addend: 0x0, symName: __ZNSt3__117__compressed_pairIPNS_11__tree_nodeINS_12__value_typeINS_12basic_stringIcNS_11char_traitsIcEENS_9allocatorIcEEEEPdEEPvEENS_22__tree_node_destructorINS6_ISC_EEEEEC2B7v160006IRSD_SG_EEOT_OT0_, symObjAddr: 0x9160, symBinAddr: 0x10000D2D0, symSize: 0x40 }
  - { offsetInCU: 0x18DFC, offset: 0x18DFC, size: 0x8, addend: 0x0, symName: __ZNSt3__122__compressed_pair_elemIPNS_11__tree_nodeINS_12__value_typeINS_12basic_stringIcNS_11char_traitsIcEENS_9allocatorIcEEEEPdEEPvEELi0ELb0EEC2B7v160006IRSD_vEEOT_, symObjAddr: 0x91A0, symBinAddr: 0x10000D310, symSize: 0x20 }
  - { offsetInCU: 0x18E3E, offset: 0x18E3E, size: 0x8, addend: 0x0, symName: __ZNSt3__122__compressed_pair_elemINS_22__tree_node_destructorINS_9allocatorINS_11__tree_nodeINS_12__value_typeINS_12basic_stringIcNS_11char_traitsIcEENS2_IcEEEEPdEEPvEEEEEELi1ELb0EEC2B7v160006ISF_vEEOT_, symObjAddr: 0x91C0, symBinAddr: 0x10000D330, symSize: 0x30 }
  - { offsetInCU: 0x18E80, offset: 0x18E80, size: 0x8, addend: 0x0, symName: __ZNSt3__19allocatorINS_11__tree_nodeINS_12__value_typeINS_12basic_stringIcNS_11char_traitsIcEENS0_IcEEEEPdEEPvEEE9constructB7v160006INS_4pairIKS7_S8_EEJRKNS_21piecewise_construct_tENS_5tupleIJOS7_EEENSK_IJEEEEEEvPT_DpOT0_, symObjAddr: 0x91F0, symBinAddr: 0x10000D360, symSize: 0x40 }
  - { offsetInCU: 0x18EFC, offset: 0x18EFC, size: 0x8, addend: 0x0, symName: __ZNSt3__14pairIKNS_12basic_stringIcNS_11char_traitsIcEENS_9allocatorIcEEEEPdEC1B7v160006IJOS6_EJEEENS_21piecewise_construct_tENS_5tupleIJDpT_EEENSD_IJDpT0_EEE, symObjAddr: 0x9230, symBinAddr: 0x10000D3A0, symSize: 0x40 }
  - { offsetInCU: 0x18F63, offset: 0x18F63, size: 0x8, addend: 0x0, symName: __ZNSt3__14pairIKNS_12basic_stringIcNS_11char_traitsIcEENS_9allocatorIcEEEEPdEC1B7v160006IJOS6_EJEJLm0EEJEEENS_21piecewise_construct_tERNS_5tupleIJDpT_EEERNSD_IJDpT0_EEENS_15__tuple_indicesIJXspT1_EEEENSM_IJXspT2_EEEE, symObjAddr: 0x9270, symBinAddr: 0x10000D3E0, symSize: 0x30 }
  - { offsetInCU: 0x18FF3, offset: 0x18FF3, size: 0x8, addend: 0x0, symName: __ZNSt3__14pairIKNS_12basic_stringIcNS_11char_traitsIcEENS_9allocatorIcEEEEPdEC2B7v160006IJOS6_EJEJLm0EEJEEENS_21piecewise_construct_tERNS_5tupleIJDpT_EEERNSD_IJDpT0_EEENS_15__tuple_indicesIJXspT1_EEEENSM_IJXspT2_EEEE, symObjAddr: 0x92A0, symBinAddr: 0x10000D410, symSize: 0x50 }
  - { offsetInCU: 0x19083, offset: 0x19083, size: 0x8, addend: 0x0, symName: __ZNKSt3__117__compressed_pairIPNS_11__tree_nodeINS_12__value_typeINS_12basic_stringIcNS_11char_traitsIcEENS_9allocatorIcEEEEPdEEPvEENS_22__tree_node_destructorINS6_ISC_EEEEE5firstB7v160006Ev, symObjAddr: 0x92F0, symBinAddr: 0x10000D460, symSize: 0x20 }
  - { offsetInCU: 0x190A9, offset: 0x190A9, size: 0x8, addend: 0x0, symName: __ZNKSt3__122__compressed_pair_elemIPNS_11__tree_nodeINS_12__value_typeINS_12basic_stringIcNS_11char_traitsIcEENS_9allocatorIcEEEEPdEEPvEELi0ELb0EE5__getB7v160006Ev, symObjAddr: 0x9310, symBinAddr: 0x10000D480, symSize: 0x10 }
  - { offsetInCU: 0x190CF, offset: 0x190CF, size: 0x8, addend: 0x0, symName: __ZNSt3__117__compressed_pairIPNS_11__tree_nodeINS_12__value_typeINS_12basic_stringIcNS_11char_traitsIcEENS_9allocatorIcEEEEPdEEPvEENS_22__tree_node_destructorINS6_ISC_EEEEE6secondB7v160006Ev, symObjAddr: 0x9320, symBinAddr: 0x10000D490, symSize: 0x20 }
  - { offsetInCU: 0x190F5, offset: 0x190F5, size: 0x8, addend: 0x0, symName: __ZNSt3__122__compressed_pair_elemINS_22__tree_node_destructorINS_9allocatorINS_11__tree_nodeINS_12__value_typeINS_12basic_stringIcNS_11char_traitsIcEENS2_IcEEEEPdEEPvEEEEEELi1ELb0EE5__getB7v160006Ev, symObjAddr: 0x9340, symBinAddr: 0x10000D4B0, symSize: 0x10 }
  - { offsetInCU: 0x1911B, offset: 0x1911B, size: 0x8, addend: 0x0, symName: __ZNSt3__16__treeINS_12__value_typeINS_12basic_stringIcNS_11char_traitsIcEENS_9allocatorIcEEEEPdEENS_19__map_value_compareIS7_S9_NS_4lessIS7_EELb1EEENS5_IS9_EEE4sizeB7v160006Ev, symObjAddr: 0x9350, symBinAddr: 0x10000D4C0, symSize: 0x20 }
  - { offsetInCU: 0x19141, offset: 0x19141, size: 0x8, addend: 0x0, symName: __ZNSt3__117__compressed_pairImNS_19__map_value_compareINS_12basic_stringIcNS_11char_traitsIcEENS_9allocatorIcEEEENS_12__value_typeIS7_PdEENS_4lessIS7_EELb1EEEE5firstB7v160006Ev, symObjAddr: 0x9370, symBinAddr: 0x10000D4E0, symSize: 0x20 }
  - { offsetInCU: 0x19167, offset: 0x19167, size: 0x8, addend: 0x0, symName: __ZNSt3__117__compressed_pairIPNS_11__tree_nodeINS_12__value_typeINS_12basic_stringIcNS_11char_traitsIcEENS_9allocatorIcEEEEPdEEPvEENS_22__tree_node_destructorINS6_ISC_EEEEE5firstB7v160006Ev, symObjAddr: 0x9390, symBinAddr: 0x10000D500, symSize: 0x20 }
  - { offsetInCU: 0x1918D, offset: 0x1918D, size: 0x8, addend: 0x0, symName: __ZNSt3__122__compressed_pair_elemIPNS_11__tree_nodeINS_12__value_typeINS_12basic_stringIcNS_11char_traitsIcEENS_9allocatorIcEEEEPdEEPvEELi0ELb0EE5__getB7v160006Ev, symObjAddr: 0x93B0, symBinAddr: 0x10000D520, symSize: 0x10 }
  - { offsetInCU: 0x191B3, offset: 0x191B3, size: 0x8, addend: 0x0, symName: __ZNSt3__110unique_ptrINS_11__tree_nodeINS_12__value_typeINS_12basic_stringIcNS_11char_traitsIcEENS_9allocatorIcEEEEPdEEPvEENS_22__tree_node_destructorINS6_ISC_EEEEED2B7v160006Ev, symObjAddr: 0x93C0, symBinAddr: 0x10000D530, symSize: 0x20 }
  - { offsetInCU: 0x191DD, offset: 0x191DD, size: 0x8, addend: 0x0, symName: __ZNSt3__110unique_ptrINS_11__tree_nodeINS_12__value_typeINS_12basic_stringIcNS_11char_traitsIcEENS_9allocatorIcEEEEPdEEPvEENS_22__tree_node_destructorINS6_ISC_EEEEE5resetB7v160006EPSC_, symObjAddr: 0x93E0, symBinAddr: 0x10000D550, symSize: 0x70 }
  - { offsetInCU: 0x19221, offset: 0x19221, size: 0x8, addend: 0x0, symName: __ZNSt3__122__tree_node_destructorINS_9allocatorINS_11__tree_nodeINS_12__value_typeINS_12basic_stringIcNS_11char_traitsIcEENS1_IcEEEEPdEEPvEEEEEclB7v160006EPSC_, symObjAddr: 0x9450, symBinAddr: 0x10000D5C0, symSize: 0x70 }
  - { offsetInCU: 0x19256, offset: 0x19256, size: 0x8, addend: 0x0, symName: __ZNSt3__115__tree_iteratorINS_12__value_typeINS_12basic_stringIcNS_11char_traitsIcEENS_9allocatorIcEEEEPdEEPNS_11__tree_nodeIS9_PvEElEC2B7v160006ESD_, symObjAddr: 0x94C0, symBinAddr: 0x10000D630, symSize: 0x20 }
  - { offsetInCU: 0x1928F, offset: 0x1928F, size: 0x8, addend: 0x0, symName: __ZNSt3__14pairINS_15__tree_iteratorINS_12__value_typeINS_12basic_stringIcNS_11char_traitsIcEENS_9allocatorIcEEEEPdEEPNS_11__tree_nodeISA_PvEElEEbEC2B7v160006ISF_RbLSC_0EEEOT_OT0_, symObjAddr: 0x94E0, symBinAddr: 0x10000D650, symSize: 0x30 }
  - { offsetInCU: 0x192ED, offset: 0x192ED, size: 0x8, addend: 0x0, symName: __ZNSt3__13mapINS_12basic_stringIcNS_11char_traitsIcEENS_9allocatorIcEEEEPPdNS_4lessIS6_EENS4_INS_4pairIKS6_S8_EEEEEC2B7v160006ERKSF_, symObjAddr: 0x9510, symBinAddr: 0x10000D680, symSize: 0x80 }
  - { offsetInCU: 0x19326, offset: 0x19326, size: 0x8, addend: 0x0, symName: __ZNSt3__16__treeINS_12__value_typeINS_12basic_stringIcNS_11char_traitsIcEENS_9allocatorIcEEEEPPdEENS_19__map_value_compareIS7_SA_NS_4lessIS7_EELb1EEENS5_ISA_EEEC1ERKSG_, symObjAddr: 0x9590, symBinAddr: 0x10000D700, symSize: 0x30 }
  - { offsetInCU: 0x19361, offset: 0x19361, size: 0x8, addend: 0x0, symName: __ZNSt3__13mapINS_12basic_stringIcNS_11char_traitsIcEENS_9allocatorIcEEEEPPdNS_4lessIS6_EENS4_INS_4pairIKS6_S8_EEEEE6insertB7v160006INS_20__map_const_iteratorINS_21__tree_const_iteratorINS_12__value_typeIS6_S8_EEPNS_11__tree_nodeISK_PvEElEEEEEEvT_SR_, symObjAddr: 0x95C0, symBinAddr: 0x10000D730, symSize: 0x90 }
  - { offsetInCU: 0x193CB, offset: 0x193CB, size: 0x8, addend: 0x0, symName: __ZNKSt3__13mapINS_12basic_stringIcNS_11char_traitsIcEENS_9allocatorIcEEEEPPdNS_4lessIS6_EENS4_INS_4pairIKS6_S8_EEEEE5beginB7v160006Ev, symObjAddr: 0x9650, symBinAddr: 0x10000D7C0, symSize: 0x30 }
  - { offsetInCU: 0x193F1, offset: 0x193F1, size: 0x8, addend: 0x0, symName: __ZNKSt3__13mapINS_12basic_stringIcNS_11char_traitsIcEENS_9allocatorIcEEEEPPdNS_4lessIS6_EENS4_INS_4pairIKS6_S8_EEEEE3endB7v160006Ev, symObjAddr: 0x9680, symBinAddr: 0x10000D7F0, symSize: 0x30 }
  - { offsetInCU: 0x19417, offset: 0x19417, size: 0x8, addend: 0x0, symName: __ZNSt3__16__treeINS_12__value_typeINS_12basic_stringIcNS_11char_traitsIcEENS_9allocatorIcEEEEPPdEENS_19__map_value_compareIS7_SA_NS_4lessIS7_EELb1EEENS5_ISA_EEEC2ERKSG_, symObjAddr: 0x96B0, symBinAddr: 0x10000D820, symSize: 0xA0 }
  - { offsetInCU: 0x19452, offset: 0x19452, size: 0x8, addend: 0x0, symName: __ZNSt3__116allocator_traitsINS_9allocatorINS_11__tree_nodeINS_12__value_typeINS_12basic_stringIcNS_11char_traitsIcEENS1_IcEEEEPPdEEPvEEEEE37select_on_container_copy_constructionB7v160006ISE_vvEESE_RKSE_, symObjAddr: 0x9750, symBinAddr: 0x10000D8C0, symSize: 0x10 }
  - { offsetInCU: 0x19481, offset: 0x19481, size: 0x8, addend: 0x0, symName: __ZNKSt3__16__treeINS_12__value_typeINS_12basic_stringIcNS_11char_traitsIcEENS_9allocatorIcEEEEPPdEENS_19__map_value_compareIS7_SA_NS_4lessIS7_EELb1EEENS5_ISA_EEE12__node_allocB7v160006Ev, symObjAddr: 0x9760, symBinAddr: 0x10000D8D0, symSize: 0x20 }
  - { offsetInCU: 0x194AC, offset: 0x194AC, size: 0x8, addend: 0x0, symName: __ZNSt3__117__compressed_pairINS_15__tree_end_nodeIPNS_16__tree_node_baseIPvEEEENS_9allocatorINS_11__tree_nodeINS_12__value_typeINS_12basic_stringIcNS_11char_traitsIcEENS7_IcEEEEPPdEES3_EEEEEC1B7v160006INS_18__default_init_tagESJ_EEOT_OT0_, symObjAddr: 0x9780, symBinAddr: 0x10000D8F0, symSize: 0x30 }
  - { offsetInCU: 0x19504, offset: 0x19504, size: 0x8, addend: 0x0, symName: __ZNKSt3__16__treeINS_12__value_typeINS_12basic_stringIcNS_11char_traitsIcEENS_9allocatorIcEEEEPPdEENS_19__map_value_compareIS7_SA_NS_4lessIS7_EELb1EEENS5_ISA_EEE10value_compB7v160006Ev, symObjAddr: 0x97B0, symBinAddr: 0x10000D920, symSize: 0x20 }
  - { offsetInCU: 0x1952A, offset: 0x1952A, size: 0x8, addend: 0x0, symName: __ZNKSt3__117__compressed_pairINS_15__tree_end_nodeIPNS_16__tree_node_baseIPvEEEENS_9allocatorINS_11__tree_nodeINS_12__value_typeINS_12basic_stringIcNS_11char_traitsIcEENS7_IcEEEEPPdEES3_EEEEE6secondB7v160006Ev, symObjAddr: 0x97D0, symBinAddr: 0x10000D940, symSize: 0x20 }
  - { offsetInCU: 0x19550, offset: 0x19550, size: 0x8, addend: 0x0, symName: __ZNKSt3__122__compressed_pair_elemINS_9allocatorINS_11__tree_nodeINS_12__value_typeINS_12basic_stringIcNS_11char_traitsIcEENS1_IcEEEEPPdEEPvEEEELi1ELb1EE5__getB7v160006Ev, symObjAddr: 0x97F0, symBinAddr: 0x10000D960, symSize: 0x10 }
  - { offsetInCU: 0x19576, offset: 0x19576, size: 0x8, addend: 0x0, symName: __ZNSt3__117__compressed_pairINS_15__tree_end_nodeIPNS_16__tree_node_baseIPvEEEENS_9allocatorINS_11__tree_nodeINS_12__value_typeINS_12basic_stringIcNS_11char_traitsIcEENS7_IcEEEEPPdEES3_EEEEEC2B7v160006INS_18__default_init_tagESJ_EEOT_OT0_, symObjAddr: 0x9800, symBinAddr: 0x10000D970, symSize: 0x40 }
  - { offsetInCU: 0x195CE, offset: 0x195CE, size: 0x8, addend: 0x0, symName: __ZNSt3__122__compressed_pair_elemINS_15__tree_end_nodeIPNS_16__tree_node_baseIPvEEEELi0ELb0EEC2B7v160006ENS_18__default_init_tagE, symObjAddr: 0x9840, symBinAddr: 0x10000D9B0, symSize: 0x20 }
  - { offsetInCU: 0x19602, offset: 0x19602, size: 0x8, addend: 0x0, symName: __ZNSt3__122__compressed_pair_elemINS_9allocatorINS_11__tree_nodeINS_12__value_typeINS_12basic_stringIcNS_11char_traitsIcEENS1_IcEEEEPPdEEPvEEEELi1ELb1EEC2B7v160006ISE_vEEOT_, symObjAddr: 0x9860, symBinAddr: 0x10000D9D0, symSize: 0x10 }
  - { offsetInCU: 0x19644, offset: 0x19644, size: 0x8, addend: 0x0, symName: __ZNKSt3__117__compressed_pairImNS_19__map_value_compareINS_12basic_stringIcNS_11char_traitsIcEENS_9allocatorIcEEEENS_12__value_typeIS7_PPdEENS_4lessIS7_EELb1EEEE6secondB7v160006Ev, symObjAddr: 0x9870, symBinAddr: 0x10000D9E0, symSize: 0x20 }
  - { offsetInCU: 0x1966A, offset: 0x1966A, size: 0x8, addend: 0x0, symName: __ZNKSt3__122__compressed_pair_elemINS_19__map_value_compareINS_12basic_stringIcNS_11char_traitsIcEENS_9allocatorIcEEEENS_12__value_typeIS7_PPdEENS_4lessIS7_EELb1EEELi1ELb1EE5__getB7v160006Ev, symObjAddr: 0x9890, symBinAddr: 0x10000DA00, symSize: 0x10 }
  - { offsetInCU: 0x19690, offset: 0x19690, size: 0x8, addend: 0x0, symName: __ZNKSt3__13mapINS_12basic_stringIcNS_11char_traitsIcEENS_9allocatorIcEEEEPPdNS_4lessIS6_EENS4_INS_4pairIKS6_S8_EEEEE4cendB7v160006Ev, symObjAddr: 0x98A0, symBinAddr: 0x10000DA10, symSize: 0x30 }
  - { offsetInCU: 0x196B6, offset: 0x196B6, size: 0x8, addend: 0x0, symName: __ZNSt3__13mapINS_12basic_stringIcNS_11char_traitsIcEENS_9allocatorIcEEEEPPdNS_4lessIS6_EENS4_INS_4pairIKS6_S8_EEEEE6insertB7v160006ENS_20__map_const_iteratorINS_21__tree_const_iteratorINS_12__value_typeIS6_S8_EEPNS_11__tree_nodeISJ_PvEElEEEERKSD_, symObjAddr: 0x9900, symBinAddr: 0x10000DA70, symSize: 0x50 }
  - { offsetInCU: 0x196FA, offset: 0x196FA, size: 0x8, addend: 0x0, symName: __ZNSt3__120__map_const_iteratorINS_21__tree_const_iteratorINS_12__value_typeINS_12basic_stringIcNS_11char_traitsIcEENS_9allocatorIcEEEEPPdEEPNS_11__tree_nodeISB_PvEElEEEC1B7v160006ESG_, symObjAddr: 0x9950, symBinAddr: 0x10000DAC0, symSize: 0x30 }
  - { offsetInCU: 0x19733, offset: 0x19733, size: 0x8, addend: 0x0, symName: __ZNKSt3__120__map_const_iteratorINS_21__tree_const_iteratorINS_12__value_typeINS_12basic_stringIcNS_11char_traitsIcEENS_9allocatorIcEEEEPPdEEPNS_11__tree_nodeISB_PvEElEEEdeB7v160006Ev, symObjAddr: 0x9980, symBinAddr: 0x10000DAF0, symSize: 0x30 }
  - { offsetInCU: 0x19759, offset: 0x19759, size: 0x8, addend: 0x0, symName: __ZNSt3__120__map_const_iteratorINS_21__tree_const_iteratorINS_12__value_typeINS_12basic_stringIcNS_11char_traitsIcEENS_9allocatorIcEEEEPPdEEPNS_11__tree_nodeISB_PvEElEEEppB7v160006Ev, symObjAddr: 0x99B0, symBinAddr: 0x10000DB20, symSize: 0x30 }
  - { offsetInCU: 0x1977F, offset: 0x1977F, size: 0x8, addend: 0x0, symName: __ZNSt3__16__treeINS_12__value_typeINS_12basic_stringIcNS_11char_traitsIcEENS_9allocatorIcEEEEPPdEENS_19__map_value_compareIS7_SA_NS_4lessIS7_EELb1EEENS5_ISA_EEE15__insert_uniqueB7v160006ENS_21__tree_const_iteratorISA_PNS_11__tree_nodeISA_PvEElEERKNS_4pairIKS7_S9_EE, symObjAddr: 0x9A40, symBinAddr: 0x10000DBB0, symSize: 0x60 }
  - { offsetInCU: 0x197C3, offset: 0x197C3, size: 0x8, addend: 0x0, symName: __ZNSt3__16__treeINS_12__value_typeINS_12basic_stringIcNS_11char_traitsIcEENS_9allocatorIcEEEEPPdEENS_19__map_value_compareIS7_SA_NS_4lessIS7_EELb1EEENS5_ISA_EEE30__emplace_hint_unique_key_argsIS7_JRKNS_4pairIKS7_S9_EEEEENSI_INS_15__tree_iteratorISA_PNS_11__tree_nodeISA_PvEElEEbEENS_21__tree_const_iteratorISA_SR_lEERKT_DpOT0_, symObjAddr: 0x9AA0, symBinAddr: 0x10000DC10, symSize: 0x110 }
  - { offsetInCU: 0x19898, offset: 0x19898, size: 0x8, addend: 0x0, symName: __ZNSt3__122__tree_key_value_typesINS_12__value_typeINS_12basic_stringIcNS_11char_traitsIcEENS_9allocatorIcEEEEPPdEEE9__get_keyB7v160006IKNS_4pairIKS7_S9_EEEENS_9enable_ifIXsr17__is_same_uncvrefIT_SF_EE5valueERSE_E4typeERSI_, symObjAddr: 0x9BB0, symBinAddr: 0x10000DD20, symSize: 0x10 }
  - { offsetInCU: 0x198C5, offset: 0x198C5, size: 0x8, addend: 0x0, symName: __ZNSt3__16__treeINS_12__value_typeINS_12basic_stringIcNS_11char_traitsIcEENS_9allocatorIcEEEEPPdEENS_19__map_value_compareIS7_SA_NS_4lessIS7_EELb1EEENS5_ISA_EEE12__find_equalIS7_EERPNS_16__tree_node_baseIPvEENS_21__tree_const_iteratorISA_PNS_11__tree_nodeISA_SJ_EElEERPNS_15__tree_end_nodeISL_EESM_RKT_, symObjAddr: 0x9BC0, symBinAddr: 0x10000DD30, symSize: 0x330 }
  - { offsetInCU: 0x1996E, offset: 0x1996E, size: 0x8, addend: 0x0, symName: __ZNSt3__16__treeINS_12__value_typeINS_12basic_stringIcNS_11char_traitsIcEENS_9allocatorIcEEEEPPdEENS_19__map_value_compareIS7_SA_NS_4lessIS7_EELb1EEENS5_ISA_EEE16__construct_nodeIJRKNS_4pairIKS7_S9_EEEEENS_10unique_ptrINS_11__tree_nodeISA_PvEENS_22__tree_node_destructorINS5_ISQ_EEEEEEDpOT_, symObjAddr: 0x9EF0, symBinAddr: 0x10000E060, symSize: 0xF0 }
  - { offsetInCU: 0x199CF, offset: 0x199CF, size: 0x8, addend: 0x0, symName: __ZNSt3__121__tree_const_iteratorINS_12__value_typeINS_12basic_stringIcNS_11char_traitsIcEENS_9allocatorIcEEEEPPdEEPNS_11__tree_nodeISA_PvEElEC1B7v160006ENS_15__tree_iteratorISA_SE_lEE, symObjAddr: 0x9FE0, symBinAddr: 0x10000E150, symSize: 0x30 }
  - { offsetInCU: 0x19A08, offset: 0x19A08, size: 0x8, addend: 0x0, symName: __ZNKSt3__121__tree_const_iteratorINS_12__value_typeINS_12basic_stringIcNS_11char_traitsIcEENS_9allocatorIcEEEEPPdEEPNS_11__tree_nodeISA_PvEElEdeB7v160006Ev, symObjAddr: 0xA010, symBinAddr: 0x10000E180, symSize: 0x20 }
  - { offsetInCU: 0x19A2E, offset: 0x19A2E, size: 0x8, addend: 0x0, symName: __ZNSt3__121__tree_const_iteratorINS_12__value_typeINS_12basic_stringIcNS_11char_traitsIcEENS_9allocatorIcEEEEPPdEEPNS_11__tree_nodeISA_PvEElEmmB7v160006Ev, symObjAddr: 0xA030, symBinAddr: 0x10000E1A0, symSize: 0x30 }
  - { offsetInCU: 0x19A54, offset: 0x19A54, size: 0x8, addend: 0x0, symName: __ZNKSt3__121__tree_const_iteratorINS_12__value_typeINS_12basic_stringIcNS_11char_traitsIcEENS_9allocatorIcEEEEPPdEEPNS_11__tree_nodeISA_PvEElE8__get_npB7v160006Ev, symObjAddr: 0xA0B0, symBinAddr: 0x10000E220, symSize: 0x20 }
  - { offsetInCU: 0x19A7A, offset: 0x19A7A, size: 0x8, addend: 0x0, symName: __ZNSt3__121__tree_const_iteratorINS_12__value_typeINS_12basic_stringIcNS_11char_traitsIcEENS_9allocatorIcEEEEPPdEEPNS_11__tree_nodeISA_PvEElEC2B7v160006ENS_15__tree_iteratorISA_SE_lEE, symObjAddr: 0xA0D0, symBinAddr: 0x10000E240, symSize: 0x20 }
  - { offsetInCU: 0x19AB3, offset: 0x19AB3, size: 0x8, addend: 0x0, symName: __ZNSt3__121__tree_const_iteratorINS_12__value_typeINS_12basic_stringIcNS_11char_traitsIcEENS_9allocatorIcEEEEPPdEEPNS_11__tree_nodeISA_PvEElEppB7v160006Ev, symObjAddr: 0xA280, symBinAddr: 0x10000E3F0, symSize: 0x30 }
  - { offsetInCU: 0x19AD9, offset: 0x19AD9, size: 0x8, addend: 0x0, symName: __ZNSt3__116allocator_traitsINS_9allocatorINS_11__tree_nodeINS_12__value_typeINS_12basic_stringIcNS_11char_traitsIcEENS1_IcEEEEPPdEEPvEEEEE9constructB7v160006INS_4pairIKS8_SA_EEJRKSJ_EvEEvRSE_PT_DpOT0_, symObjAddr: 0xA2B0, symBinAddr: 0x10000E420, symSize: 0x30 }
  - { offsetInCU: 0x19B30, offset: 0x19B30, size: 0x8, addend: 0x0, symName: __ZNSt3__19allocatorINS_11__tree_nodeINS_12__value_typeINS_12basic_stringIcNS_11char_traitsIcEENS0_IcEEEEPPdEEPvEEE9constructB7v160006INS_4pairIKS7_S9_EEJRKSH_EEEvPT_DpOT0_, symObjAddr: 0xA2E0, symBinAddr: 0x10000E450, symSize: 0x30 }
  - { offsetInCU: 0x19B86, offset: 0x19B86, size: 0x8, addend: 0x0, symName: __ZNSt3__14pairIKNS_12basic_stringIcNS_11char_traitsIcEENS_9allocatorIcEEEEPPdEC1ERKSA_, symObjAddr: 0xA310, symBinAddr: 0x10000E480, symSize: 0x30 }
  - { offsetInCU: 0x19BBA, offset: 0x19BBA, size: 0x8, addend: 0x0, symName: __ZNSt3__14pairIKNS_12basic_stringIcNS_11char_traitsIcEENS_9allocatorIcEEEEPPdEC2ERKSA_, symObjAddr: 0xA340, symBinAddr: 0x10000E4B0, symSize: 0x40 }
  - { offsetInCU: 0x19BEE, offset: 0x19BEE, size: 0x8, addend: 0x0, symName: __ZNSt3__120__map_const_iteratorINS_21__tree_const_iteratorINS_12__value_typeINS_12basic_stringIcNS_11char_traitsIcEENS_9allocatorIcEEEEPPdEEPNS_11__tree_nodeISB_PvEElEEEC2B7v160006ESG_, symObjAddr: 0xA380, symBinAddr: 0x10000E4F0, symSize: 0x20 }
  - { offsetInCU: 0x19C27, offset: 0x19C27, size: 0x8, addend: 0x0, symName: __ZNKSt3__121__tree_const_iteratorINS_12__value_typeINS_12basic_stringIcNS_11char_traitsIcEENS_9allocatorIcEEEEPPdEEPNS_11__tree_nodeISA_PvEElEptB7v160006Ev, symObjAddr: 0xA3A0, symBinAddr: 0x10000E510, symSize: 0x30 }
  - { offsetInCU: 0x19C4D, offset: 0x19C4D, size: 0x8, addend: 0x0, symName: __ZNSt3__114pointer_traitsIPKNS_12__value_typeINS_12basic_stringIcNS_11char_traitsIcEENS_9allocatorIcEEEEPPdEEE10pointer_toB7v160006ERSB_, symObjAddr: 0xA3D0, symBinAddr: 0x10000E540, symSize: 0x10 }
  - { offsetInCU: 0x19C70, offset: 0x19C70, size: 0x8, addend: 0x0, symName: __ZNKSt3__16__treeINS_12__value_typeINS_12basic_stringIcNS_11char_traitsIcEENS_9allocatorIcEEEEPPdEENS_19__map_value_compareIS7_SA_NS_4lessIS7_EELb1EEENS5_ISA_EEE5beginB7v160006Ev, symObjAddr: 0xA3E0, symBinAddr: 0x10000E550, symSize: 0x30 }
  - { offsetInCU: 0x19C96, offset: 0x19C96, size: 0x8, addend: 0x0, symName: __ZNKSt3__16__treeINS_12__value_typeINS_12basic_stringIcNS_11char_traitsIcEENS_9allocatorIcEEEEPPdEENS_19__map_value_compareIS7_SA_NS_4lessIS7_EELb1EEENS5_ISA_EEE12__begin_nodeB7v160006Ev, symObjAddr: 0xA410, symBinAddr: 0x10000E580, symSize: 0x10 }
  - { offsetInCU: 0x19CBC, offset: 0x19CBC, size: 0x8, addend: 0x0, symName: __ZNSt3__121__tree_const_iteratorINS_12__value_typeINS_12basic_stringIcNS_11char_traitsIcEENS_9allocatorIcEEEEPPdEEPNS_11__tree_nodeISA_PvEElEC1B7v160006EPNS_15__tree_end_nodeIPNS_16__tree_node_baseISC_EEEE, symObjAddr: 0xA420, symBinAddr: 0x10000E590, symSize: 0x30 }
  - { offsetInCU: 0x19CF5, offset: 0x19CF5, size: 0x8, addend: 0x0, symName: __ZNSt3__121__tree_const_iteratorINS_12__value_typeINS_12basic_stringIcNS_11char_traitsIcEENS_9allocatorIcEEEEPPdEEPNS_11__tree_nodeISA_PvEElEC2B7v160006EPNS_15__tree_end_nodeIPNS_16__tree_node_baseISC_EEEE, symObjAddr: 0xA450, symBinAddr: 0x10000E5C0, symSize: 0x20 }
  - { offsetInCU: 0x19D2E, offset: 0x19D2E, size: 0x8, addend: 0x0, symName: __ZNKSt3__16__treeINS_12__value_typeINS_12basic_stringIcNS_11char_traitsIcEENS_9allocatorIcEEEEPPdEENS_19__map_value_compareIS7_SA_NS_4lessIS7_EELb1EEENS5_ISA_EEE3endB7v160006Ev, symObjAddr: 0xA470, symBinAddr: 0x10000E5E0, symSize: 0x30 }
  - { offsetInCU: 0x19D54, offset: 0x19D54, size: 0x8, addend: 0x0, symName: __ZNSt3__13mapINS_12basic_stringIcNS_11char_traitsIcEENS_9allocatorIcEEEEPdNS_4lessIS6_EENS4_INS_4pairIKS6_S7_EEEEEC2B7v160006ERKSE_, symObjAddr: 0xA4A0, symBinAddr: 0x10000E610, symSize: 0x80 }
  - { offsetInCU: 0x19D8D, offset: 0x19D8D, size: 0x8, addend: 0x0, symName: __ZNSt3__16__treeINS_12__value_typeINS_12basic_stringIcNS_11char_traitsIcEENS_9allocatorIcEEEEPdEENS_19__map_value_compareIS7_S9_NS_4lessIS7_EELb1EEENS5_IS9_EEEC1ERKSF_, symObjAddr: 0xA520, symBinAddr: 0x10000E690, symSize: 0x30 }
  - { offsetInCU: 0x19DC8, offset: 0x19DC8, size: 0x8, addend: 0x0, symName: __ZNSt3__13mapINS_12basic_stringIcNS_11char_traitsIcEENS_9allocatorIcEEEEPdNS_4lessIS6_EENS4_INS_4pairIKS6_S7_EEEEE6insertB7v160006INS_20__map_const_iteratorINS_21__tree_const_iteratorINS_12__value_typeIS6_S7_EEPNS_11__tree_nodeISJ_PvEElEEEEEEvT_SQ_, symObjAddr: 0xA550, symBinAddr: 0x10000E6C0, symSize: 0x90 }
  - { offsetInCU: 0x19E32, offset: 0x19E32, size: 0x8, addend: 0x0, symName: __ZNKSt3__13mapINS_12basic_stringIcNS_11char_traitsIcEENS_9allocatorIcEEEEPdNS_4lessIS6_EENS4_INS_4pairIKS6_S7_EEEEE5beginB7v160006Ev, symObjAddr: 0xA5E0, symBinAddr: 0x10000E750, symSize: 0x30 }
  - { offsetInCU: 0x19E58, offset: 0x19E58, size: 0x8, addend: 0x0, symName: __ZNKSt3__13mapINS_12basic_stringIcNS_11char_traitsIcEENS_9allocatorIcEEEEPdNS_4lessIS6_EENS4_INS_4pairIKS6_S7_EEEEE3endB7v160006Ev, symObjAddr: 0xA610, symBinAddr: 0x10000E780, symSize: 0x30 }
  - { offsetInCU: 0x19E7E, offset: 0x19E7E, size: 0x8, addend: 0x0, symName: __ZNSt3__16__treeINS_12__value_typeINS_12basic_stringIcNS_11char_traitsIcEENS_9allocatorIcEEEEPdEENS_19__map_value_compareIS7_S9_NS_4lessIS7_EELb1EEENS5_IS9_EEEC2ERKSF_, symObjAddr: 0xA640, symBinAddr: 0x10000E7B0, symSize: 0xA0 }
  - { offsetInCU: 0x19EB9, offset: 0x19EB9, size: 0x8, addend: 0x0, symName: __ZNSt3__116allocator_traitsINS_9allocatorINS_11__tree_nodeINS_12__value_typeINS_12basic_stringIcNS_11char_traitsIcEENS1_IcEEEEPdEEPvEEEEE37select_on_container_copy_constructionB7v160006ISD_vvEESD_RKSD_, symObjAddr: 0xA6E0, symBinAddr: 0x10000E850, symSize: 0x10 }
  - { offsetInCU: 0x19EE8, offset: 0x19EE8, size: 0x8, addend: 0x0, symName: __ZNKSt3__16__treeINS_12__value_typeINS_12basic_stringIcNS_11char_traitsIcEENS_9allocatorIcEEEEPdEENS_19__map_value_compareIS7_S9_NS_4lessIS7_EELb1EEENS5_IS9_EEE12__node_allocB7v160006Ev, symObjAddr: 0xA6F0, symBinAddr: 0x10000E860, symSize: 0x20 }
  - { offsetInCU: 0x19F13, offset: 0x19F13, size: 0x8, addend: 0x0, symName: __ZNSt3__117__compressed_pairINS_15__tree_end_nodeIPNS_16__tree_node_baseIPvEEEENS_9allocatorINS_11__tree_nodeINS_12__value_typeINS_12basic_stringIcNS_11char_traitsIcEENS7_IcEEEEPdEES3_EEEEEC1B7v160006INS_18__default_init_tagESI_EEOT_OT0_, symObjAddr: 0xA710, symBinAddr: 0x10000E880, symSize: 0x30 }
  - { offsetInCU: 0x19F6B, offset: 0x19F6B, size: 0x8, addend: 0x0, symName: __ZNKSt3__16__treeINS_12__value_typeINS_12basic_stringIcNS_11char_traitsIcEENS_9allocatorIcEEEEPdEENS_19__map_value_compareIS7_S9_NS_4lessIS7_EELb1EEENS5_IS9_EEE10value_compB7v160006Ev, symObjAddr: 0xA740, symBinAddr: 0x10000E8B0, symSize: 0x20 }
  - { offsetInCU: 0x19F91, offset: 0x19F91, size: 0x8, addend: 0x0, symName: __ZNKSt3__117__compressed_pairINS_15__tree_end_nodeIPNS_16__tree_node_baseIPvEEEENS_9allocatorINS_11__tree_nodeINS_12__value_typeINS_12basic_stringIcNS_11char_traitsIcEENS7_IcEEEEPdEES3_EEEEE6secondB7v160006Ev, symObjAddr: 0xA760, symBinAddr: 0x10000E8D0, symSize: 0x20 }
  - { offsetInCU: 0x19FB7, offset: 0x19FB7, size: 0x8, addend: 0x0, symName: __ZNKSt3__122__compressed_pair_elemINS_9allocatorINS_11__tree_nodeINS_12__value_typeINS_12basic_stringIcNS_11char_traitsIcEENS1_IcEEEEPdEEPvEEEELi1ELb1EE5__getB7v160006Ev, symObjAddr: 0xA780, symBinAddr: 0x10000E8F0, symSize: 0x10 }
  - { offsetInCU: 0x19FDD, offset: 0x19FDD, size: 0x8, addend: 0x0, symName: __ZNSt3__117__compressed_pairINS_15__tree_end_nodeIPNS_16__tree_node_baseIPvEEEENS_9allocatorINS_11__tree_nodeINS_12__value_typeINS_12basic_stringIcNS_11char_traitsIcEENS7_IcEEEEPdEES3_EEEEEC2B7v160006INS_18__default_init_tagESI_EEOT_OT0_, symObjAddr: 0xA790, symBinAddr: 0x10000E900, symSize: 0x40 }
  - { offsetInCU: 0x1A035, offset: 0x1A035, size: 0x8, addend: 0x0, symName: __ZNSt3__122__compressed_pair_elemINS_9allocatorINS_11__tree_nodeINS_12__value_typeINS_12basic_stringIcNS_11char_traitsIcEENS1_IcEEEEPdEEPvEEEELi1ELb1EEC2B7v160006ISD_vEEOT_, symObjAddr: 0xA7D0, symBinAddr: 0x10000E940, symSize: 0x10 }
  - { offsetInCU: 0x1A077, offset: 0x1A077, size: 0x8, addend: 0x0, symName: __ZNKSt3__117__compressed_pairImNS_19__map_value_compareINS_12basic_stringIcNS_11char_traitsIcEENS_9allocatorIcEEEENS_12__value_typeIS7_PdEENS_4lessIS7_EELb1EEEE6secondB7v160006Ev, symObjAddr: 0xA7E0, symBinAddr: 0x10000E950, symSize: 0x20 }
  - { offsetInCU: 0x1A09D, offset: 0x1A09D, size: 0x8, addend: 0x0, symName: __ZNKSt3__122__compressed_pair_elemINS_19__map_value_compareINS_12basic_stringIcNS_11char_traitsIcEENS_9allocatorIcEEEENS_12__value_typeIS7_PdEENS_4lessIS7_EELb1EEELi1ELb1EE5__getB7v160006Ev, symObjAddr: 0xA800, symBinAddr: 0x10000E970, symSize: 0x10 }
  - { offsetInCU: 0x1A0C3, offset: 0x1A0C3, size: 0x8, addend: 0x0, symName: __ZNKSt3__13mapINS_12basic_stringIcNS_11char_traitsIcEENS_9allocatorIcEEEEPdNS_4lessIS6_EENS4_INS_4pairIKS6_S7_EEEEE4cendB7v160006Ev, symObjAddr: 0xA810, symBinAddr: 0x10000E980, symSize: 0x30 }
  - { offsetInCU: 0x1A0E9, offset: 0x1A0E9, size: 0x8, addend: 0x0, symName: __ZNSt3__13mapINS_12basic_stringIcNS_11char_traitsIcEENS_9allocatorIcEEEEPdNS_4lessIS6_EENS4_INS_4pairIKS6_S7_EEEEE6insertB7v160006ENS_20__map_const_iteratorINS_21__tree_const_iteratorINS_12__value_typeIS6_S7_EEPNS_11__tree_nodeISI_PvEElEEEERKSC_, symObjAddr: 0xA870, symBinAddr: 0x10000E9E0, symSize: 0x50 }
  - { offsetInCU: 0x1A12D, offset: 0x1A12D, size: 0x8, addend: 0x0, symName: __ZNSt3__120__map_const_iteratorINS_21__tree_const_iteratorINS_12__value_typeINS_12basic_stringIcNS_11char_traitsIcEENS_9allocatorIcEEEEPdEEPNS_11__tree_nodeISA_PvEElEEEC1B7v160006ESF_, symObjAddr: 0xA8C0, symBinAddr: 0x10000EA30, symSize: 0x30 }
  - { offsetInCU: 0x1A166, offset: 0x1A166, size: 0x8, addend: 0x0, symName: __ZNKSt3__120__map_const_iteratorINS_21__tree_const_iteratorINS_12__value_typeINS_12basic_stringIcNS_11char_traitsIcEENS_9allocatorIcEEEEPdEEPNS_11__tree_nodeISA_PvEElEEEdeB7v160006Ev, symObjAddr: 0xA8F0, symBinAddr: 0x10000EA60, symSize: 0x30 }
  - { offsetInCU: 0x1A18C, offset: 0x1A18C, size: 0x8, addend: 0x0, symName: __ZNSt3__120__map_const_iteratorINS_21__tree_const_iteratorINS_12__value_typeINS_12basic_stringIcNS_11char_traitsIcEENS_9allocatorIcEEEEPdEEPNS_11__tree_nodeISA_PvEElEEEppB7v160006Ev, symObjAddr: 0xA920, symBinAddr: 0x10000EA90, symSize: 0x30 }
  - { offsetInCU: 0x1A1B2, offset: 0x1A1B2, size: 0x8, addend: 0x0, symName: __ZNSt3__16__treeINS_12__value_typeINS_12basic_stringIcNS_11char_traitsIcEENS_9allocatorIcEEEEPdEENS_19__map_value_compareIS7_S9_NS_4lessIS7_EELb1EEENS5_IS9_EEE15__insert_uniqueB7v160006ENS_21__tree_const_iteratorIS9_PNS_11__tree_nodeIS9_PvEElEERKNS_4pairIKS7_S8_EE, symObjAddr: 0xA9B0, symBinAddr: 0x10000EB20, symSize: 0x60 }
  - { offsetInCU: 0x1A1F6, offset: 0x1A1F6, size: 0x8, addend: 0x0, symName: __ZNSt3__16__treeINS_12__value_typeINS_12basic_stringIcNS_11char_traitsIcEENS_9allocatorIcEEEEPdEENS_19__map_value_compareIS7_S9_NS_4lessIS7_EELb1EEENS5_IS9_EEE30__emplace_hint_unique_key_argsIS7_JRKNS_4pairIKS7_S8_EEEEENSH_INS_15__tree_iteratorIS9_PNS_11__tree_nodeIS9_PvEElEEbEENS_21__tree_const_iteratorIS9_SQ_lEERKT_DpOT0_, symObjAddr: 0xAA10, symBinAddr: 0x10000EB80, symSize: 0x110 }
  - { offsetInCU: 0x1A2CB, offset: 0x1A2CB, size: 0x8, addend: 0x0, symName: __ZNSt3__122__tree_key_value_typesINS_12__value_typeINS_12basic_stringIcNS_11char_traitsIcEENS_9allocatorIcEEEEPdEEE9__get_keyB7v160006IKNS_4pairIKS7_S8_EEEENS_9enable_ifIXsr17__is_same_uncvrefIT_SE_EE5valueERSD_E4typeERSH_, symObjAddr: 0xAB20, symBinAddr: 0x10000EC90, symSize: 0x10 }
  - { offsetInCU: 0x1A2F8, offset: 0x1A2F8, size: 0x8, addend: 0x0, symName: __ZNSt3__16__treeINS_12__value_typeINS_12basic_stringIcNS_11char_traitsIcEENS_9allocatorIcEEEEPdEENS_19__map_value_compareIS7_S9_NS_4lessIS7_EELb1EEENS5_IS9_EEE12__find_equalIS7_EERPNS_16__tree_node_baseIPvEENS_21__tree_const_iteratorIS9_PNS_11__tree_nodeIS9_SI_EElEERPNS_15__tree_end_nodeISK_EESL_RKT_, symObjAddr: 0xAB30, symBinAddr: 0x10000ECA0, symSize: 0x330 }
  - { offsetInCU: 0x1A3A1, offset: 0x1A3A1, size: 0x8, addend: 0x0, symName: __ZNSt3__16__treeINS_12__value_typeINS_12basic_stringIcNS_11char_traitsIcEENS_9allocatorIcEEEEPdEENS_19__map_value_compareIS7_S9_NS_4lessIS7_EELb1EEENS5_IS9_EEE16__construct_nodeIJRKNS_4pairIKS7_S8_EEEEENS_10unique_ptrINS_11__tree_nodeIS9_PvEENS_22__tree_node_destructorINS5_ISP_EEEEEEDpOT_, symObjAddr: 0xAE60, symBinAddr: 0x10000EFD0, symSize: 0xF0 }
  - { offsetInCU: 0x1A402, offset: 0x1A402, size: 0x8, addend: 0x0, symName: __ZNSt3__121__tree_const_iteratorINS_12__value_typeINS_12basic_stringIcNS_11char_traitsIcEENS_9allocatorIcEEEEPdEEPNS_11__tree_nodeIS9_PvEElEC1B7v160006ENS_15__tree_iteratorIS9_SD_lEE, symObjAddr: 0xAF50, symBinAddr: 0x10000F0C0, symSize: 0x30 }
  - { offsetInCU: 0x1A43B, offset: 0x1A43B, size: 0x8, addend: 0x0, symName: __ZNKSt3__121__tree_const_iteratorINS_12__value_typeINS_12basic_stringIcNS_11char_traitsIcEENS_9allocatorIcEEEEPdEEPNS_11__tree_nodeIS9_PvEElEdeB7v160006Ev, symObjAddr: 0xAF80, symBinAddr: 0x10000F0F0, symSize: 0x20 }
  - { offsetInCU: 0x1A461, offset: 0x1A461, size: 0x8, addend: 0x0, symName: __ZNSt3__121__tree_const_iteratorINS_12__value_typeINS_12basic_stringIcNS_11char_traitsIcEENS_9allocatorIcEEEEPdEEPNS_11__tree_nodeIS9_PvEElEmmB7v160006Ev, symObjAddr: 0xAFA0, symBinAddr: 0x10000F110, symSize: 0x30 }
  - { offsetInCU: 0x1A487, offset: 0x1A487, size: 0x8, addend: 0x0, symName: __ZNKSt3__121__tree_const_iteratorINS_12__value_typeINS_12basic_stringIcNS_11char_traitsIcEENS_9allocatorIcEEEEPdEEPNS_11__tree_nodeIS9_PvEElE8__get_npB7v160006Ev, symObjAddr: 0xB020, symBinAddr: 0x10000F190, symSize: 0x20 }
  - { offsetInCU: 0x1A4AD, offset: 0x1A4AD, size: 0x8, addend: 0x0, symName: __ZNSt3__121__tree_const_iteratorINS_12__value_typeINS_12basic_stringIcNS_11char_traitsIcEENS_9allocatorIcEEEEPdEEPNS_11__tree_nodeIS9_PvEElEC2B7v160006ENS_15__tree_iteratorIS9_SD_lEE, symObjAddr: 0xB040, symBinAddr: 0x10000F1B0, symSize: 0x20 }
  - { offsetInCU: 0x1A4E6, offset: 0x1A4E6, size: 0x8, addend: 0x0, symName: __ZNSt3__121__tree_const_iteratorINS_12__value_typeINS_12basic_stringIcNS_11char_traitsIcEENS_9allocatorIcEEEEPdEEPNS_11__tree_nodeIS9_PvEElEppB7v160006Ev, symObjAddr: 0xB130, symBinAddr: 0x10000F2A0, symSize: 0x30 }
  - { offsetInCU: 0x1A50C, offset: 0x1A50C, size: 0x8, addend: 0x0, symName: __ZNSt3__116allocator_traitsINS_9allocatorINS_11__tree_nodeINS_12__value_typeINS_12basic_stringIcNS_11char_traitsIcEENS1_IcEEEEPdEEPvEEEEE9constructB7v160006INS_4pairIKS8_S9_EEJRKSI_EvEEvRSD_PT_DpOT0_, symObjAddr: 0xB160, symBinAddr: 0x10000F2D0, symSize: 0x30 }
  - { offsetInCU: 0x1A563, offset: 0x1A563, size: 0x8, addend: 0x0, symName: __ZNSt3__19allocatorINS_11__tree_nodeINS_12__value_typeINS_12basic_stringIcNS_11char_traitsIcEENS0_IcEEEEPdEEPvEEE9constructB7v160006INS_4pairIKS7_S8_EEJRKSG_EEEvPT_DpOT0_, symObjAddr: 0xB190, symBinAddr: 0x10000F300, symSize: 0x30 }
  - { offsetInCU: 0x1A5B9, offset: 0x1A5B9, size: 0x8, addend: 0x0, symName: __ZNSt3__14pairIKNS_12basic_stringIcNS_11char_traitsIcEENS_9allocatorIcEEEEPdEC1ERKS9_, symObjAddr: 0xB1C0, symBinAddr: 0x10000F330, symSize: 0x30 }
  - { offsetInCU: 0x1A5ED, offset: 0x1A5ED, size: 0x8, addend: 0x0, symName: __ZNSt3__14pairIKNS_12basic_stringIcNS_11char_traitsIcEENS_9allocatorIcEEEEPdEC2ERKS9_, symObjAddr: 0xB1F0, symBinAddr: 0x10000F360, symSize: 0x40 }
  - { offsetInCU: 0x1A621, offset: 0x1A621, size: 0x8, addend: 0x0, symName: __ZNSt3__120__map_const_iteratorINS_21__tree_const_iteratorINS_12__value_typeINS_12basic_stringIcNS_11char_traitsIcEENS_9allocatorIcEEEEPdEEPNS_11__tree_nodeISA_PvEElEEEC2B7v160006ESF_, symObjAddr: 0xB230, symBinAddr: 0x10000F3A0, symSize: 0x20 }
  - { offsetInCU: 0x1A65A, offset: 0x1A65A, size: 0x8, addend: 0x0, symName: __ZNKSt3__121__tree_const_iteratorINS_12__value_typeINS_12basic_stringIcNS_11char_traitsIcEENS_9allocatorIcEEEEPdEEPNS_11__tree_nodeIS9_PvEElEptB7v160006Ev, symObjAddr: 0xB250, symBinAddr: 0x10000F3C0, symSize: 0x30 }
  - { offsetInCU: 0x1A680, offset: 0x1A680, size: 0x8, addend: 0x0, symName: __ZNSt3__114pointer_traitsIPKNS_12__value_typeINS_12basic_stringIcNS_11char_traitsIcEENS_9allocatorIcEEEEPdEEE10pointer_toB7v160006ERSA_, symObjAddr: 0xB280, symBinAddr: 0x10000F3F0, symSize: 0x10 }
  - { offsetInCU: 0x1A6A3, offset: 0x1A6A3, size: 0x8, addend: 0x0, symName: __ZNKSt3__16__treeINS_12__value_typeINS_12basic_stringIcNS_11char_traitsIcEENS_9allocatorIcEEEEPdEENS_19__map_value_compareIS7_S9_NS_4lessIS7_EELb1EEENS5_IS9_EEE5beginB7v160006Ev, symObjAddr: 0xB290, symBinAddr: 0x10000F400, symSize: 0x30 }
  - { offsetInCU: 0x1A6C9, offset: 0x1A6C9, size: 0x8, addend: 0x0, symName: __ZNKSt3__16__treeINS_12__value_typeINS_12basic_stringIcNS_11char_traitsIcEENS_9allocatorIcEEEEPdEENS_19__map_value_compareIS7_S9_NS_4lessIS7_EELb1EEENS5_IS9_EEE12__begin_nodeB7v160006Ev, symObjAddr: 0xB2C0, symBinAddr: 0x10000F430, symSize: 0x10 }
  - { offsetInCU: 0x1A6EF, offset: 0x1A6EF, size: 0x8, addend: 0x0, symName: __ZNSt3__121__tree_const_iteratorINS_12__value_typeINS_12basic_stringIcNS_11char_traitsIcEENS_9allocatorIcEEEEPdEEPNS_11__tree_nodeIS9_PvEElEC1B7v160006EPNS_15__tree_end_nodeIPNS_16__tree_node_baseISB_EEEE, symObjAddr: 0xB2D0, symBinAddr: 0x10000F440, symSize: 0x30 }
  - { offsetInCU: 0x1A728, offset: 0x1A728, size: 0x8, addend: 0x0, symName: __ZNSt3__121__tree_const_iteratorINS_12__value_typeINS_12basic_stringIcNS_11char_traitsIcEENS_9allocatorIcEEEEPdEEPNS_11__tree_nodeIS9_PvEElEC2B7v160006EPNS_15__tree_end_nodeIPNS_16__tree_node_baseISB_EEEE, symObjAddr: 0xB300, symBinAddr: 0x10000F470, symSize: 0x20 }
  - { offsetInCU: 0x1A761, offset: 0x1A761, size: 0x8, addend: 0x0, symName: __ZNKSt3__16__treeINS_12__value_typeINS_12basic_stringIcNS_11char_traitsIcEENS_9allocatorIcEEEEPdEENS_19__map_value_compareIS7_S9_NS_4lessIS7_EELb1EEENS5_IS9_EEE3endB7v160006Ev, symObjAddr: 0xB320, symBinAddr: 0x10000F490, symSize: 0x2B }
...
