---
triple:          'x86_64-apple-darwin'
binary-path:     '/Users/karinmetzgar/Documents/School/USC/ASTE 546 Computational Plasma Physics/WK2/hw2part1overflow'
relocations:
  - { offsetInCU: 0x315F, offset: 0x315F, size: 0x8, addend: 0x0, symName: __ZNSt3__124__put_character_sequenceB7v160006IcNS_11char_traitsIcEEEERNS_13basic_ostreamIT_T0_EES7_PKS4_m, symObjAddr: 0x6E0, symBinAddr: 0x100003360, symSize: 0x1F0 }
  - { offsetInCU: 0x52C2, offset: 0x52C2, size: 0x8, addend: 0x0, symName: __ZNSt3__1lsB7v160006INS_11char_traitsIcEEEERNS_13basic_ostreamIcT_EES6_PKc, symObjAddr: 0x400, symBinAddr: 0x100003080, symSize: 0x40 }
  - { offsetInCU: 0x5308, offset: 0x5308, size: 0x8, addend: 0x0, symName: __ZNSt3__14endlB7v160006IcNS_11char_traitsIcEEEERNS_13basic_ostreamIT_T0_EES7_, symObjAddr: 0x460, symBinAddr: 0x1000030E0, symSize: 0x50 }
  - { offsetInCU: 0x5353, offset: 0x5353, size: 0x8, addend: 0x0, symName: __ZNSt3__116__pad_and_outputB7v160006IcNS_11char_traitsIcEEEENS_19ostreambuf_iteratorIT_T0_EES6_PKS4_S8_S8_RNS_8ios_baseES4_, symObjAddr: 0x920, symBinAddr: 0x1000035A0, symSize: 0x220 }
  - { offsetInCU: 0x5423, offset: 0x5423, size: 0x8, addend: 0x0, symName: __ZNSt3__119__debug_db_insert_cB7v160006INS_12basic_stringIcNS_11char_traitsIcEENS_9allocatorIcEEEEEEvPT_, symObjAddr: 0xD90, symBinAddr: 0x100003A10, symSize: 0x10 }
  - { offsetInCU: 0x5454, offset: 0x5454, size: 0x8, addend: 0x0, symName: __ZNSt3__112__to_addressB7v160006IKcEEPT_S3_, symObjAddr: 0xE30, symBinAddr: 0x100003AB0, symSize: 0x10 }
  - { offsetInCU: 0x54BC, offset: 0x54BC, size: 0x8, addend: 0x0, symName: __ZNSt3__19use_facetB7v160006INS_5ctypeIcEEEERKT_RKNS_6localeE, symObjAddr: 0x1080, symBinAddr: 0x100003D00, symSize: 0x30 }
  - { offsetInCU: 0x598B, offset: 0x598B, size: 0x8, addend: 0x0, symName: __ZNSt3__118__constexpr_strlenB7v160006EPKc, symObjAddr: 0x10E0, symBinAddr: 0x100003D60, symSize: 0x1B }
  - { offsetInCU: 0x7F14, offset: 0x7F14, size: 0x8, addend: 0x0, symName: _main, symObjAddr: 0x0, symBinAddr: 0x100002C80, symSize: 0x2A0 }
  - { offsetInCU: 0x802E, offset: 0x802E, size: 0x8, addend: 0x0, symName: __ZNSt3__114basic_ofstreamIcNS_11char_traitsIcEEEC1EPKcj, symObjAddr: 0x2A0, symBinAddr: 0x100002F20, symSize: 0x160 }
  - { offsetInCU: 0x8076, offset: 0x8076, size: 0x8, addend: 0x0, symName: __ZNSt3__113basic_ostreamIcNS_11char_traitsIcEEElsB7v160006EPFRS3_S4_E, symObjAddr: 0x440, symBinAddr: 0x1000030C0, symSize: 0x20 }
  - { offsetInCU: 0x80AD, offset: 0x80AD, size: 0x8, addend: 0x0, symName: __ZNSt3__114basic_ofstreamIcNS_11char_traitsIcEEED1Ev, symObjAddr: 0x4B0, symBinAddr: 0x100003130, symSize: 0x40 }
  - { offsetInCU: 0x80D8, offset: 0x80D8, size: 0x8, addend: 0x0, symName: __ZNSt3__114basic_ofstreamIcNS_11char_traitsIcEEED2Ev, symObjAddr: 0x4F0, symBinAddr: 0x100003170, symSize: 0x60 }
  - { offsetInCU: 0x810F, offset: 0x810F, size: 0x8, addend: 0x0, symName: __ZTv0_n24_NSt3__114basic_ofstreamIcNS_11char_traitsIcEEED1Ev, symObjAddr: 0x550, symBinAddr: 0x1000031D0, symSize: 0x20 }
  - { offsetInCU: 0x8126, offset: 0x8126, size: 0x8, addend: 0x0, symName: __ZNSt3__19basic_iosIcNS_11char_traitsIcEEEC2B7v160006Ev, symObjAddr: 0x570, symBinAddr: 0x1000031F0, symSize: 0x40 }
  - { offsetInCU: 0x814E, offset: 0x814E, size: 0x8, addend: 0x0, symName: __ZNSt3__113basic_ostreamIcNS_11char_traitsIcEEEC2B7v160006EPNS_15basic_streambufIcS2_EE, symObjAddr: 0x5B0, symBinAddr: 0x100003230, symSize: 0x50 }
  - { offsetInCU: 0x818F, offset: 0x818F, size: 0x8, addend: 0x0, symName: __ZNSt3__19basic_iosIcNS_11char_traitsIcEEE8setstateB7v160006Ej, symObjAddr: 0x600, symBinAddr: 0x100003280, symSize: 0x30 }
  - { offsetInCU: 0x81C3, offset: 0x81C3, size: 0x8, addend: 0x0, symName: __ZNSt3__18ios_baseC2B7v160006Ev, symObjAddr: 0x630, symBinAddr: 0x1000032B0, symSize: 0x20 }
  - { offsetInCU: 0x81EB, offset: 0x81EB, size: 0x8, addend: 0x0, symName: __ZNSt3__19basic_iosIcNS_11char_traitsIcEEE4initB7v160006EPNS_15basic_streambufIcS2_EE, symObjAddr: 0x650, symBinAddr: 0x1000032D0, symSize: 0x50 }
  - { offsetInCU: 0x8221, offset: 0x8221, size: 0x8, addend: 0x0, symName: __ZNSt3__111char_traitsIcE3eofEv, symObjAddr: 0x6A0, symBinAddr: 0x100003320, symSize: 0x10 }
  - { offsetInCU: 0x8235, offset: 0x8235, size: 0x8, addend: 0x0, symName: __ZNSt3__18ios_base8setstateB7v160006Ej, symObjAddr: 0x6B0, symBinAddr: 0x100003330, symSize: 0x30 }
  - { offsetInCU: 0x826B, offset: 0x826B, size: 0x8, addend: 0x0, symName: __ZNSt3__111char_traitsIcE6lengthEPKc, symObjAddr: 0x8D0, symBinAddr: 0x100003550, symSize: 0x30 }
  - { offsetInCU: 0x82AB, offset: 0x82AB, size: 0x8, addend: 0x0, symName: __ZNKSt3__113basic_ostreamIcNS_11char_traitsIcEEE6sentrycvbB7v160006Ev, symObjAddr: 0x900, symBinAddr: 0x100003580, symSize: 0x20 }
  - { offsetInCU: 0x82D0, offset: 0x82D0, size: 0x8, addend: 0x0, symName: __ZNSt3__119ostreambuf_iteratorIcNS_11char_traitsIcEEEC1B7v160006ERNS_13basic_ostreamIcS2_EE, symObjAddr: 0xB40, symBinAddr: 0x1000037C0, symSize: 0x30 }
  - { offsetInCU: 0x8306, offset: 0x8306, size: 0x8, addend: 0x0, symName: __ZNKSt3__18ios_base5flagsB7v160006Ev, symObjAddr: 0xB70, symBinAddr: 0x1000037F0, symSize: 0x20 }
  - { offsetInCU: 0x832D, offset: 0x832D, size: 0x8, addend: 0x0, symName: __ZNKSt3__19basic_iosIcNS_11char_traitsIcEEE4fillB7v160006Ev, symObjAddr: 0xB90, symBinAddr: 0x100003810, symSize: 0x70 }
  - { offsetInCU: 0x8353, offset: 0x8353, size: 0x8, addend: 0x0, symName: __ZNKSt3__119ostreambuf_iteratorIcNS_11char_traitsIcEEE6failedB7v160006Ev, symObjAddr: 0xC00, symBinAddr: 0x100003880, symSize: 0x20 }
  - { offsetInCU: 0x8378, offset: 0x8378, size: 0x8, addend: 0x0, symName: __ZNKSt3__18ios_base5widthB7v160006Ev, symObjAddr: 0xC30, symBinAddr: 0x1000038B0, symSize: 0x20 }
  - { offsetInCU: 0x839E, offset: 0x839E, size: 0x8, addend: 0x0, symName: __ZNSt3__115basic_streambufIcNS_11char_traitsIcEEE5sputnB7v160006EPKcl, symObjAddr: 0xC50, symBinAddr: 0x1000038D0, symSize: 0x30 }
  - { offsetInCU: 0x83DF, offset: 0x83DF, size: 0x8, addend: 0x0, symName: __ZNSt3__112basic_stringIcNS_11char_traitsIcEENS_9allocatorIcEEEC1B7v160006Emc, symObjAddr: 0xC80, symBinAddr: 0x100003900, symSize: 0x30 }
  - { offsetInCU: 0x8424, offset: 0x8424, size: 0x8, addend: 0x0, symName: __ZNKSt3__112basic_stringIcNS_11char_traitsIcEENS_9allocatorIcEEE4dataB7v160006Ev, symObjAddr: 0xCB0, symBinAddr: 0x100003930, symSize: 0x30 }
  - { offsetInCU: 0x8449, offset: 0x8449, size: 0x8, addend: 0x0, symName: __ZNSt3__18ios_base5widthB7v160006El, symObjAddr: 0xCE0, symBinAddr: 0x100003960, symSize: 0x30 }
  - { offsetInCU: 0x848E, offset: 0x848E, size: 0x8, addend: 0x0, symName: __ZNSt3__112basic_stringIcNS_11char_traitsIcEENS_9allocatorIcEEEC2B7v160006Emc, symObjAddr: 0xD10, symBinAddr: 0x100003990, symSize: 0x50 }
  - { offsetInCU: 0x84D9, offset: 0x84D9, size: 0x8, addend: 0x0, symName: __ZNSt3__117__compressed_pairINS_12basic_stringIcNS_11char_traitsIcEENS_9allocatorIcEEE5__repES5_EC1B7v160006INS_18__default_init_tagESA_EEOT_OT0_, symObjAddr: 0xD60, symBinAddr: 0x1000039E0, symSize: 0x30 }
  - { offsetInCU: 0x852F, offset: 0x852F, size: 0x8, addend: 0x0, symName: __ZNSt3__117__compressed_pairINS_12basic_stringIcNS_11char_traitsIcEENS_9allocatorIcEEE5__repES5_EC2B7v160006INS_18__default_init_tagESA_EEOT_OT0_, symObjAddr: 0xDA0, symBinAddr: 0x100003A20, symSize: 0x30 }
  - { offsetInCU: 0x8585, offset: 0x8585, size: 0x8, addend: 0x0, symName: __ZNSt3__122__compressed_pair_elemINS_12basic_stringIcNS_11char_traitsIcEENS_9allocatorIcEEE5__repELi0ELb0EEC2B7v160006ENS_18__default_init_tagE, symObjAddr: 0xDD0, symBinAddr: 0x100003A50, symSize: 0x10 }
  - { offsetInCU: 0x85B8, offset: 0x85B8, size: 0x8, addend: 0x0, symName: __ZNSt3__122__compressed_pair_elemINS_9allocatorIcEELi1ELb1EEC2B7v160006ENS_18__default_init_tagE, symObjAddr: 0xDE0, symBinAddr: 0x100003A60, symSize: 0x20 }
  - { offsetInCU: 0x85EB, offset: 0x85EB, size: 0x8, addend: 0x0, symName: __ZNSt3__19allocatorIcEC2B7v160006Ev, symObjAddr: 0xE00, symBinAddr: 0x100003A80, symSize: 0x20 }
  - { offsetInCU: 0x8613, offset: 0x8613, size: 0x8, addend: 0x0, symName: __ZNSt3__116__non_trivial_ifILb1ENS_9allocatorIcEEEC2B7v160006Ev, symObjAddr: 0xE20, symBinAddr: 0x100003AA0, symSize: 0x10 }
  - { offsetInCU: 0x863A, offset: 0x863A, size: 0x8, addend: 0x0, symName: __ZNKSt3__112basic_stringIcNS_11char_traitsIcEENS_9allocatorIcEEE13__get_pointerB7v160006Ev, symObjAddr: 0xE40, symBinAddr: 0x100003AC0, symSize: 0x50 }
  - { offsetInCU: 0x865E, offset: 0x865E, size: 0x8, addend: 0x0, symName: __ZNKSt3__112basic_stringIcNS_11char_traitsIcEENS_9allocatorIcEEE9__is_longB7v160006Ev, symObjAddr: 0xE90, symBinAddr: 0x100003B10, symSize: 0x30 }
  - { offsetInCU: 0x8682, offset: 0x8682, size: 0x8, addend: 0x0, symName: __ZNKSt3__112basic_stringIcNS_11char_traitsIcEENS_9allocatorIcEEE18__get_long_pointerB7v160006Ev, symObjAddr: 0xEC0, symBinAddr: 0x100003B40, symSize: 0x20 }
  - { offsetInCU: 0x86A6, offset: 0x86A6, size: 0x8, addend: 0x0, symName: __ZNKSt3__112basic_stringIcNS_11char_traitsIcEENS_9allocatorIcEEE19__get_short_pointerB7v160006Ev, symObjAddr: 0xEE0, symBinAddr: 0x100003B60, symSize: 0x30 }
  - { offsetInCU: 0x86CA, offset: 0x86CA, size: 0x8, addend: 0x0, symName: __ZNKSt3__117__compressed_pairINS_12basic_stringIcNS_11char_traitsIcEENS_9allocatorIcEEE5__repES5_E5firstB7v160006Ev, symObjAddr: 0xF10, symBinAddr: 0x100003B90, symSize: 0x20 }
  - { offsetInCU: 0x86EE, offset: 0x86EE, size: 0x8, addend: 0x0, symName: __ZNKSt3__122__compressed_pair_elemINS_12basic_stringIcNS_11char_traitsIcEENS_9allocatorIcEEE5__repELi0ELb0EE5__getB7v160006Ev, symObjAddr: 0xF30, symBinAddr: 0x100003BB0, symSize: 0x10 }
  - { offsetInCU: 0x8713, offset: 0x8713, size: 0x8, addend: 0x0, symName: __ZNSt3__114pointer_traitsIPKcE10pointer_toB7v160006ERS1_, symObjAddr: 0xF40, symBinAddr: 0x100003BC0, symSize: 0x10 }
  - { offsetInCU: 0x8736, offset: 0x8736, size: 0x8, addend: 0x0, symName: __ZNSt3__119ostreambuf_iteratorIcNS_11char_traitsIcEEEC2B7v160006ERNS_13basic_ostreamIcS2_EE, symObjAddr: 0xF50, symBinAddr: 0x100003BD0, symSize: 0x50 }
  - { offsetInCU: 0x876C, offset: 0x876C, size: 0x8, addend: 0x0, symName: __ZNKSt3__19basic_iosIcNS_11char_traitsIcEEE5rdbufB7v160006Ev, symObjAddr: 0xFA0, symBinAddr: 0x100003C20, symSize: 0x20 }
  - { offsetInCU: 0x8792, offset: 0x8792, size: 0x8, addend: 0x0, symName: __ZNKSt3__18ios_base5rdbufB7v160006Ev, symObjAddr: 0xFC0, symBinAddr: 0x100003C40, symSize: 0x20 }
  - { offsetInCU: 0x87B7, offset: 0x87B7, size: 0x8, addend: 0x0, symName: __ZNSt3__111char_traitsIcE11eq_int_typeEii, symObjAddr: 0xFE0, symBinAddr: 0x100003C60, symSize: 0x20 }
  - { offsetInCU: 0x87E8, offset: 0x87E8, size: 0x8, addend: 0x0, symName: __ZNKSt3__19basic_iosIcNS_11char_traitsIcEEE5widenB7v160006Ec, symObjAddr: 0x1000, symBinAddr: 0x100003C80, symSize: 0x80 }
  - { offsetInCU: 0x8854, offset: 0x8854, size: 0x8, addend: 0x0, symName: __ZNKSt3__15ctypeIcE5widenB7v160006Ec, symObjAddr: 0x10B0, symBinAddr: 0x100003D30, symSize: 0x30 }
...
