---
triple:          'x86_64-apple-darwin'
binary-path:     '/Users/karinmetzgar/Documents/School/USC/ASTE 546 Computational Plasma Physics/ASTE546 Git Repo/WK10 HW1/FT'
relocations:
  - { offsetInCU: 0x5702, offset: 0x5702, size: 0x8, addend: 0x0, symName: __ZNSt3__124__put_character_sequenceB7v160006IcNS_11char_traitsIcEEEERNS_13basic_ostreamIT_T0_EES7_PKS4_m, symObjAddr: 0x3D30, symBinAddr: 0x100007000, symSize: 0x1F0 }
  - { offsetInCU: 0x725E, offset: 0x725E, size: 0x8, addend: 0x0, symName: __ZNSt3__1mlB7v160006IdEENS_7complexIT_EERKS3_S5_, symObjAddr: 0x490, symBinAddr: 0x100003760, symSize: 0x4D0 }
  - { offsetInCU: 0x735C, offset: 0x735C, size: 0x8, addend: 0x0, symName: __ZNSt3__13expB7v160006IdEENS_7complexIT_EERKS3_, symObjAddr: 0x960, symBinAddr: 0x100003C30, symSize: 0x1C0 }
  - { offsetInCU: 0x73B1, offset: 0x73B1, size: 0x8, addend: 0x0, symName: __ZNSt3__1mlB7v160006IdEENS_7complexIT_EERKS3_RKS2_, symObjAddr: 0xB20, symBinAddr: 0x100003DF0, symSize: 0x40 }
  - { offsetInCU: 0x7406, offset: 0x7406, size: 0x8, addend: 0x0, symName: __ZNSt3__1ngB7v160006IdEENS_7complexIT_EERKS3_, symObjAddr: 0xB60, symBinAddr: 0x100003E30, symSize: 0x60 }
  - { offsetInCU: 0x743D, offset: 0x743D, size: 0x8, addend: 0x0, symName: __ZNSt3__1dvB7v160006IdEENS_7complexIT_EERKS3_RKS2_, symObjAddr: 0xF40, symBinAddr: 0x100004210, symSize: 0x60 }
  - { offsetInCU: 0x7C96, offset: 0x7C96, size: 0x8, addend: 0x0, symName: __ZNSt3__1lsB7v160006INS_11char_traitsIcEEEERNS_13basic_ostreamIcT_EES6_PKc, symObjAddr: 0x1A70, symBinAddr: 0x100004D40, symSize: 0x40 }
  - { offsetInCU: 0x7CDC, offset: 0x7CDC, size: 0x8, addend: 0x0, symName: __ZNSt3__14endlB7v160006IcNS_11char_traitsIcEEEERNS_13basic_ostreamIT_T0_EES7_, symObjAddr: 0x1AD0, symBinAddr: 0x100004DA0, symSize: 0x50 }
  - { offsetInCU: 0x7D1C, offset: 0x7D1C, size: 0x8, addend: 0x0, symName: __ZNSt3__14realB7v160006IdEET_RKNS_7complexIS1_EE, symObjAddr: 0x1B20, symBinAddr: 0x100004DF0, symSize: 0x20 }
  - { offsetInCU: 0x7D5E, offset: 0x7D5E, size: 0x8, addend: 0x0, symName: __ZNSt3__122__make_exception_guardB7v160006INS_6vectorIdNS_9allocatorIdEEE16__destroy_vectorEEENS_28__exception_guard_exceptionsIT_EES7_, symObjAddr: 0x1DB0, symBinAddr: 0x100005080, symSize: 0x40 }
  - { offsetInCU: 0x7D93, offset: 0x7D93, size: 0x8, addend: 0x0, symName: __ZNSt3__119__debug_db_insert_cB7v160006INS_6vectorIdNS_9allocatorIdEEEEEEvPT_, symObjAddr: 0x1E20, symBinAddr: 0x1000050F0, symSize: 0x10 }
  - { offsetInCU: 0x7DC4, offset: 0x7DC4, size: 0x8, addend: 0x0, symName: __ZNSt3__119__allocate_at_leastB7v160006INS_9allocatorIdEEEENS_19__allocation_resultINS_16allocator_traitsIT_E7pointerEEERS5_m, symObjAddr: 0x2170, symBinAddr: 0x100005440, symSize: 0x40 }
  - { offsetInCU: 0x7E07, offset: 0x7E07, size: 0x8, addend: 0x0, symName: __ZNSt3__13minB7v160006ImEERKT_S3_S3_, symObjAddr: 0x22A0, symBinAddr: 0x100005570, symSize: 0x30 }
  - { offsetInCU: 0x804B, offset: 0x804B, size: 0x8, addend: 0x0, symName: __ZNSt3__13minB7v160006ImNS_6__lessImmEEEERKT_S5_S5_T0_, symObjAddr: 0x2330, symBinAddr: 0x100005600, symSize: 0x50 }
  - { offsetInCU: 0x80E0, offset: 0x80E0, size: 0x8, addend: 0x0, symName: __ZNSt3__120__throw_length_errorB7v160006EPKc, symObjAddr: 0x2410, symBinAddr: 0x1000056E0, symSize: 0x70 }
  - { offsetInCU: 0x8108, offset: 0x8108, size: 0x8, addend: 0x0, symName: __ZNSt3__117__libcpp_allocateB7v160006Emm, symObjAddr: 0x2580, symBinAddr: 0x100005850, symSize: 0x20 }
  - { offsetInCU: 0x8145, offset: 0x8145, size: 0x8, addend: 0x0, symName: __ZNSt3__121__libcpp_operator_newB7v160006IJmEEEPvDpT_, symObjAddr: 0x25A0, symBinAddr: 0x100005870, symSize: 0x20 }
  - { offsetInCU: 0x817E, offset: 0x817E, size: 0x8, addend: 0x0, symName: __ZNSt3__112__to_addressB7v160006IdEEPT_S2_, symObjAddr: 0x2690, symBinAddr: 0x100005960, symSize: 0x10 }
  - { offsetInCU: 0x81B3, offset: 0x81B3, size: 0x8, addend: 0x0, symName: __ZNSt3__118__debug_db_erase_cB7v160006INS_6vectorIdNS_9allocatorIdEEEEEEvPT_, symObjAddr: 0x2970, symBinAddr: 0x100005C40, symSize: 0x10 }
  - { offsetInCU: 0x81E4, offset: 0x81E4, size: 0x8, addend: 0x0, symName: __ZNSt3__119__libcpp_deallocateB7v160006EPvmm, symObjAddr: 0x2AF0, symBinAddr: 0x100005DC0, symSize: 0x30 }
  - { offsetInCU: 0x822C, offset: 0x822C, size: 0x8, addend: 0x0, symName: __ZNSt3__127__do_deallocate_handle_sizeB7v160006IJEEEvPvmDpT_, symObjAddr: 0x2B20, symBinAddr: 0x100005DF0, symSize: 0x20 }
  - { offsetInCU: 0x826A, offset: 0x826A, size: 0x8, addend: 0x0, symName: __ZNSt3__124__libcpp_operator_deleteB7v160006IJPvEEEvDpT_, symObjAddr: 0x2B40, symBinAddr: 0x100005E10, symSize: 0x20 }
  - { offsetInCU: 0x829F, offset: 0x829F, size: 0x8, addend: 0x0, symName: __ZNSt3__122__make_exception_guardB7v160006INS_6vectorINS_7complexIdEENS_9allocatorIS3_EEE16__destroy_vectorEEENS_28__exception_guard_exceptionsIT_EES9_, symObjAddr: 0x2CB0, symBinAddr: 0x100005F80, symSize: 0x40 }
  - { offsetInCU: 0x82D4, offset: 0x82D4, size: 0x8, addend: 0x0, symName: __ZNSt3__119__debug_db_insert_cB7v160006INS_6vectorINS_7complexIdEENS_9allocatorIS3_EEEEEEvPT_, symObjAddr: 0x2D20, symBinAddr: 0x100005FF0, symSize: 0x10 }
  - { offsetInCU: 0x8305, offset: 0x8305, size: 0x8, addend: 0x0, symName: __ZNSt3__119__allocate_at_leastB7v160006INS_9allocatorINS_7complexIdEEEEEENS_19__allocation_resultINS_16allocator_traitsIT_E7pointerEEERS7_m, symObjAddr: 0x3070, symBinAddr: 0x100006340, symSize: 0x40 }
  - { offsetInCU: 0x8348, offset: 0x8348, size: 0x8, addend: 0x0, symName: __ZNSt3__112__to_addressB7v160006INS_7complexIdEEEEPT_S4_, symObjAddr: 0x3350, symBinAddr: 0x100006620, symSize: 0x10 }
  - { offsetInCU: 0x837D, offset: 0x837D, size: 0x8, addend: 0x0, symName: __ZNSt3__118__debug_db_erase_cB7v160006INS_6vectorINS_7complexIdEENS_9allocatorIS3_EEEEEEvPT_, symObjAddr: 0x3640, symBinAddr: 0x100006910, symSize: 0x10 }
  - { offsetInCU: 0x83AE, offset: 0x83AE, size: 0x8, addend: 0x0, symName: __ZNSt3__117__constexpr_isinfB7v160006IdEENS_9enable_ifIXsr17is_floating_pointIT_EE5valueEbE4typeES2_, symObjAddr: 0x3850, symBinAddr: 0x100006B20, symSize: 0x40 }
  - { offsetInCU: 0x83E5, offset: 0x83E5, size: 0x8, addend: 0x0, symName: __ZNSt3__120__constexpr_isfiniteB7v160006IdEENS_9enable_ifIXsr17is_floating_pointIT_EE5valueEbE4typeES2_, symObjAddr: 0x3890, symBinAddr: 0x100006B60, symSize: 0x30 }
  - { offsetInCU: 0x841C, offset: 0x841C, size: 0x8, addend: 0x0, symName: __ZNSt3__117__constexpr_isnanB7v160006IdEENS_9enable_ifIXsr17is_floating_pointIT_EE5valueEbE4typeES2_, symObjAddr: 0x38C0, symBinAddr: 0x100006B90, symSize: 0x20 }
  - { offsetInCU: 0x8453, offset: 0x8453, size: 0x8, addend: 0x0, symName: __ZNSt3__120__constexpr_copysignB7v160006Edd, symObjAddr: 0x38E0, symBinAddr: 0x100006BB0, symSize: 0x40 }
  - { offsetInCU: 0x8490, offset: 0x8490, size: 0x8, addend: 0x0, symName: __ZNSt3__115__debug_db_swapB7v160006INS_6vectorINS_7complexIdEENS_9allocatorIS3_EEEEEEvPT_S8_, symObjAddr: 0x3A80, symBinAddr: 0x100006D50, symSize: 0x10 }
  - { offsetInCU: 0x84CF, offset: 0x84CF, size: 0x8, addend: 0x0, symName: __ZNSt3__125__debug_db_invalidate_allB7v160006INS_6vectorINS_7complexIdEENS_9allocatorIS3_EEEEEEvPT_, symObjAddr: 0x3B80, symBinAddr: 0x100006E50, symSize: 0x10 }
  - { offsetInCU: 0x8500, offset: 0x8500, size: 0x8, addend: 0x0, symName: __ZNSt3__116__pad_and_outputB7v160006IcNS_11char_traitsIcEEEENS_19ostreambuf_iteratorIT_T0_EES6_PKS4_S8_S8_RNS_8ios_baseES4_, symObjAddr: 0x3F70, symBinAddr: 0x100007240, symSize: 0x220 }
  - { offsetInCU: 0x85D0, offset: 0x85D0, size: 0x8, addend: 0x0, symName: __ZNSt3__119__debug_db_insert_cB7v160006INS_12basic_stringIcNS_11char_traitsIcEENS_9allocatorIcEEEEEEvPT_, symObjAddr: 0x43D0, symBinAddr: 0x1000076A0, symSize: 0x10 }
  - { offsetInCU: 0x8601, offset: 0x8601, size: 0x8, addend: 0x0, symName: __ZNSt3__112__to_addressB7v160006IKcEEPT_S3_, symObjAddr: 0x4470, symBinAddr: 0x100007740, symSize: 0x10 }
  - { offsetInCU: 0x8669, offset: 0x8669, size: 0x8, addend: 0x0, symName: __ZNSt3__19use_facetB7v160006INS_5ctypeIcEEEERKT_RKNS_6localeE, symObjAddr: 0x46C0, symBinAddr: 0x100007990, symSize: 0x30 }
  - { offsetInCU: 0x8B38, offset: 0x8B38, size: 0x8, addend: 0x0, symName: __ZNSt3__118__constexpr_strlenB7v160006EPKc, symObjAddr: 0x4720, symBinAddr: 0x1000079F0, symSize: 0x1B }
  - { offsetInCU: 0x8F1A, offset: 0x8F1A, size: 0x8, addend: 0x0, symName: __ZSt28__throw_bad_array_new_lengthB7v160006v, symObjAddr: 0x2540, symBinAddr: 0x100005810, symSize: 0x40 }
  - { offsetInCU: 0xB6EF, offset: 0xB6EF, size: 0x8, addend: 0x0, symName: __Z21getAnalyticalSolutiondii, symObjAddr: 0x0, symBinAddr: 0x1000032D0, symSize: 0xF0 }
  - { offsetInCU: 0xB7A0, offset: 0xB7A0, size: 0x8, addend: 0x0, symName: __ZNSt3__16vectorIdNS_9allocatorIdEEEC1Em, symObjAddr: 0xF0, symBinAddr: 0x1000033C0, symSize: 0x30 }
  - { offsetInCU: 0xB7DB, offset: 0xB7DB, size: 0x8, addend: 0x0, symName: __ZNSt3__16vectorIdNS_9allocatorIdEEEixB7v160006Em, symObjAddr: 0x120, symBinAddr: 0x1000033F0, symSize: 0x20 }
  - { offsetInCU: 0xB812, offset: 0xB812, size: 0x8, addend: 0x0, symName: __ZNSt3__16vectorIdNS_9allocatorIdEEED1B7v160006Ev, symObjAddr: 0x140, symBinAddr: 0x100003410, symSize: 0x20 }
  - { offsetInCU: 0xB83B, offset: 0xB83B, size: 0x8, addend: 0x0, symName: __Z3DFTRNSt3__16vectorINS_7complexIdEENS_9allocatorIS2_EEEEi, symObjAddr: 0x160, symBinAddr: 0x100003430, symSize: 0x280 }
  - { offsetInCU: 0xB8FC, offset: 0xB8FC, size: 0x8, addend: 0x0, symName: __ZNSt3__16vectorINS_7complexIdEENS_9allocatorIS2_EEEC1Em, symObjAddr: 0x3E0, symBinAddr: 0x1000036B0, symSize: 0x30 }
  - { offsetInCU: 0xB937, offset: 0xB937, size: 0x8, addend: 0x0, symName: __ZNSt3__17complexIdEC1B7v160006Edd, symObjAddr: 0x410, symBinAddr: 0x1000036E0, symSize: 0x30 }
  - { offsetInCU: 0xB97F, offset: 0xB97F, size: 0x8, addend: 0x0, symName: __ZNSt3__16vectorINS_7complexIdEENS_9allocatorIS2_EEEixB7v160006Em, symObjAddr: 0x440, symBinAddr: 0x100003710, symSize: 0x20 }
  - { offsetInCU: 0xB9B6, offset: 0xB9B6, size: 0x8, addend: 0x0, symName: __ZNSt3__17complexIdEaSB7v160006Ed, symObjAddr: 0x460, symBinAddr: 0x100003730, symSize: 0x30 }
  - { offsetInCU: 0xB9EB, offset: 0xB9EB, size: 0x8, addend: 0x0, symName: __ZNSt3__17complexIdEpLB7v160006IdEERS1_RKNS0_IT_EE, symObjAddr: 0xBC0, symBinAddr: 0x100003E90, symSize: 0x50 }
  - { offsetInCU: 0xBA29, offset: 0xBA29, size: 0x8, addend: 0x0, symName: __ZNSt3__16vectorINS_7complexIdEENS_9allocatorIS2_EEED1B7v160006Ev, symObjAddr: 0xC10, symBinAddr: 0x100003EE0, symSize: 0x20 }
  - { offsetInCU: 0xBA52, offset: 0xBA52, size: 0x8, addend: 0x0, symName: __Z14DFT_derivativeRNSt3__16vectorINS_7complexIdEENS_9allocatorIS2_EEEEdi, symObjAddr: 0xC30, symBinAddr: 0x100003F00, symSize: 0x310 }
  - { offsetInCU: 0xBB1B, offset: 0xBB1B, size: 0x8, addend: 0x0, symName: __Z5I_DFTRKNSt3__16vectorINS_7complexIdEENS_9allocatorIS2_EEEEi, symObjAddr: 0xFA0, symBinAddr: 0x100004270, symSize: 0x280 }
  - { offsetInCU: 0xBBDC, offset: 0xBBDC, size: 0x8, addend: 0x0, symName: __ZNKSt3__16vectorINS_7complexIdEENS_9allocatorIS2_EEEixB7v160006Em, symObjAddr: 0x1220, symBinAddr: 0x1000044F0, symSize: 0x20 }
  - { offsetInCU: 0xBC13, offset: 0xBC13, size: 0x8, addend: 0x0, symName: _main, symObjAddr: 0x1240, symBinAddr: 0x100004510, symSize: 0x6A0 }
  - { offsetInCU: 0xBD42, offset: 0xBD42, size: 0x8, addend: 0x0, symName: __ZNSt3__16vectorINS_7complexIdEENS_9allocatorIS2_EEEaSB7v160006EOS5_, symObjAddr: 0x18E0, symBinAddr: 0x100004BB0, symSize: 0x30 }
  - { offsetInCU: 0xBE11, offset: 0xBE11, size: 0x8, addend: 0x0, symName: __ZNSt3__114basic_ofstreamIcNS_11char_traitsIcEEEC1EPKcj, symObjAddr: 0x1910, symBinAddr: 0x100004BE0, symSize: 0x160 }
  - { offsetInCU: 0xBE5B, offset: 0xBE5B, size: 0x8, addend: 0x0, symName: __ZNSt3__113basic_ostreamIcNS_11char_traitsIcEEElsB7v160006EPFRS3_S4_E, symObjAddr: 0x1AB0, symBinAddr: 0x100004D80, symSize: 0x20 }
  - { offsetInCU: 0xBE8F, offset: 0xBE8F, size: 0x8, addend: 0x0, symName: __ZNSt3__114basic_ofstreamIcNS_11char_traitsIcEEE5closeEv, symObjAddr: 0x1B40, symBinAddr: 0x100004E10, symSize: 0x50 }
  - { offsetInCU: 0xBEBC, offset: 0xBEBC, size: 0x8, addend: 0x0, symName: __ZNSt3__114basic_ofstreamIcNS_11char_traitsIcEEED1Ev, symObjAddr: 0x1B90, symBinAddr: 0x100004E60, symSize: 0x40 }
  - { offsetInCU: 0xBEE9, offset: 0xBEE9, size: 0x8, addend: 0x0, symName: __ZNSt3__17complexIdEC2B7v160006Edd, symObjAddr: 0x1BD0, symBinAddr: 0x100004EA0, symSize: 0x30 }
  - { offsetInCU: 0xBF31, offset: 0xBF31, size: 0x8, addend: 0x0, symName: __ZNKSt3__17complexIdE4realB7v160006Ev, symObjAddr: 0x1C00, symBinAddr: 0x100004ED0, symSize: 0x20 }
  - { offsetInCU: 0xBF57, offset: 0xBF57, size: 0x8, addend: 0x0, symName: __ZNSt3__114basic_ofstreamIcNS_11char_traitsIcEEED2Ev, symObjAddr: 0x1C20, symBinAddr: 0x100004EF0, symSize: 0x60 }
  - { offsetInCU: 0xBF91, offset: 0xBF91, size: 0x8, addend: 0x0, symName: __ZTv0_n24_NSt3__114basic_ofstreamIcNS_11char_traitsIcEEED1Ev, symObjAddr: 0x1C80, symBinAddr: 0x100004F50, symSize: 0x20 }
  - { offsetInCU: 0xBFA8, offset: 0xBFA8, size: 0x8, addend: 0x0, symName: __ZNSt3__16vectorIdNS_9allocatorIdEEEC2Em, symObjAddr: 0x1CA0, symBinAddr: 0x100004F70, symSize: 0xE0 }
  - { offsetInCU: 0xC002, offset: 0xC002, size: 0x8, addend: 0x0, symName: __ZNSt3__117__compressed_pairIPdNS_9allocatorIdEEEC1B7v160006IDnNS_18__default_init_tagEEEOT_OT0_, symObjAddr: 0x1D80, symBinAddr: 0x100005050, symSize: 0x30 }
  - { offsetInCU: 0xC05A, offset: 0xC05A, size: 0x8, addend: 0x0, symName: __ZNSt3__16vectorIdNS_9allocatorIdEEE16__destroy_vectorC1ERS3_, symObjAddr: 0x1DF0, symBinAddr: 0x1000050C0, symSize: 0x30 }
  - { offsetInCU: 0xC093, offset: 0xC093, size: 0x8, addend: 0x0, symName: __ZNSt3__16vectorIdNS_9allocatorIdEEE11__vallocateB7v160006Em, symObjAddr: 0x1E30, symBinAddr: 0x100005100, symSize: 0xA0 }
  - { offsetInCU: 0xC0D7, offset: 0xC0D7, size: 0x8, addend: 0x0, symName: __ZNSt3__16vectorIdNS_9allocatorIdEEE18__construct_at_endEm, symObjAddr: 0x1ED0, symBinAddr: 0x1000051A0, symSize: 0xC0 }
  - { offsetInCU: 0xC149, offset: 0xC149, size: 0x8, addend: 0x0, symName: __ZNSt3__128__exception_guard_exceptionsINS_6vectorIdNS_9allocatorIdEEE16__destroy_vectorEE10__completeB7v160006Ev, symObjAddr: 0x1F90, symBinAddr: 0x100005260, symSize: 0x20 }
  - { offsetInCU: 0xC16F, offset: 0xC16F, size: 0x8, addend: 0x0, symName: __ZNSt3__128__exception_guard_exceptionsINS_6vectorIdNS_9allocatorIdEEE16__destroy_vectorEED1B7v160006Ev, symObjAddr: 0x1FB0, symBinAddr: 0x100005280, symSize: 0x20 }
  - { offsetInCU: 0xC199, offset: 0xC199, size: 0x8, addend: 0x0, symName: __ZNSt3__117__compressed_pairIPdNS_9allocatorIdEEEC2B7v160006IDnNS_18__default_init_tagEEEOT_OT0_, symObjAddr: 0x1FD0, symBinAddr: 0x1000052A0, symSize: 0x40 }
  - { offsetInCU: 0xC1F1, offset: 0xC1F1, size: 0x8, addend: 0x0, symName: __ZNSt3__122__compressed_pair_elemIPdLi0ELb0EEC2B7v160006IDnvEEOT_, symObjAddr: 0x2010, symBinAddr: 0x1000052E0, symSize: 0x20 }
  - { offsetInCU: 0xC233, offset: 0xC233, size: 0x8, addend: 0x0, symName: __ZNSt3__122__compressed_pair_elemINS_9allocatorIdEELi1ELb1EEC2B7v160006ENS_18__default_init_tagE, symObjAddr: 0x2030, symBinAddr: 0x100005300, symSize: 0x20 }
  - { offsetInCU: 0xC268, offset: 0xC268, size: 0x8, addend: 0x0, symName: __ZNSt3__19allocatorIdEC2B7v160006Ev, symObjAddr: 0x2050, symBinAddr: 0x100005320, symSize: 0x20 }
  - { offsetInCU: 0xC292, offset: 0xC292, size: 0x8, addend: 0x0, symName: __ZNSt3__116__non_trivial_ifILb1ENS_9allocatorIdEEEC2B7v160006Ev, symObjAddr: 0x2070, symBinAddr: 0x100005340, symSize: 0x10 }
  - { offsetInCU: 0xC2BC, offset: 0xC2BC, size: 0x8, addend: 0x0, symName: __ZNSt3__128__exception_guard_exceptionsINS_6vectorIdNS_9allocatorIdEEE16__destroy_vectorEEC1B7v160006ES5_, symObjAddr: 0x2080, symBinAddr: 0x100005350, symSize: 0x30 }
  - { offsetInCU: 0xC2F4, offset: 0xC2F4, size: 0x8, addend: 0x0, symName: __ZNSt3__128__exception_guard_exceptionsINS_6vectorIdNS_9allocatorIdEEE16__destroy_vectorEEC2B7v160006ES5_, symObjAddr: 0x20B0, symBinAddr: 0x100005380, symSize: 0x20 }
  - { offsetInCU: 0xC32C, offset: 0xC32C, size: 0x8, addend: 0x0, symName: __ZNSt3__16vectorIdNS_9allocatorIdEEE16__destroy_vectorC2ERS3_, symObjAddr: 0x20D0, symBinAddr: 0x1000053A0, symSize: 0x20 }
  - { offsetInCU: 0xC365, offset: 0xC365, size: 0x8, addend: 0x0, symName: __ZNKSt3__16vectorIdNS_9allocatorIdEEE8max_sizeEv, symObjAddr: 0x20F0, symBinAddr: 0x1000053C0, symSize: 0x60 }
  - { offsetInCU: 0xC38D, offset: 0xC38D, size: 0x8, addend: 0x0, symName: __ZNKSt3__16vectorIdNS_9allocatorIdEEE20__throw_length_errorB7v160006Ev, symObjAddr: 0x2150, symBinAddr: 0x100005420, symSize: 0x20 }
  - { offsetInCU: 0xC3B3, offset: 0xC3B3, size: 0x8, addend: 0x0, symName: __ZNSt3__16vectorIdNS_9allocatorIdEEE7__allocB7v160006Ev, symObjAddr: 0x21B0, symBinAddr: 0x100005480, symSize: 0x20 }
  - { offsetInCU: 0xC3D9, offset: 0xC3D9, size: 0x8, addend: 0x0, symName: __ZNSt3__16vectorIdNS_9allocatorIdEEE9__end_capB7v160006Ev, symObjAddr: 0x21D0, symBinAddr: 0x1000054A0, symSize: 0x20 }
  - { offsetInCU: 0xC3FF, offset: 0xC3FF, size: 0x8, addend: 0x0, symName: __ZNKSt3__16vectorIdNS_9allocatorIdEEE14__annotate_newB7v160006Em, symObjAddr: 0x21F0, symBinAddr: 0x1000054C0, symSize: 0xB0 }
  - { offsetInCU: 0xC43E, offset: 0xC43E, size: 0x8, addend: 0x0, symName: __ZNSt3__116allocator_traitsINS_9allocatorIdEEE8max_sizeB7v160006IS2_vEEmRKS2_, symObjAddr: 0x22D0, symBinAddr: 0x1000055A0, symSize: 0x20 }
  - { offsetInCU: 0xC46C, offset: 0xC46C, size: 0x8, addend: 0x0, symName: __ZNKSt3__16vectorIdNS_9allocatorIdEEE7__allocB7v160006Ev, symObjAddr: 0x22F0, symBinAddr: 0x1000055C0, symSize: 0x20 }
  - { offsetInCU: 0xC492, offset: 0xC492, size: 0x8, addend: 0x0, symName: __ZNSt3__114numeric_limitsIlE3maxB7v160006Ev, symObjAddr: 0x2310, symBinAddr: 0x1000055E0, symSize: 0x10 }
  - { offsetInCU: 0xC4BA, offset: 0xC4BA, size: 0x8, addend: 0x0, symName: __ZNKSt3__16__lessImmEclB7v160006ERKmS3_, symObjAddr: 0x2380, symBinAddr: 0x100005650, symSize: 0x30 }
  - { offsetInCU: 0xC4FC, offset: 0xC4FC, size: 0x8, addend: 0x0, symName: __ZNKSt3__19allocatorIdE8max_sizeB7v160006Ev, symObjAddr: 0x23B0, symBinAddr: 0x100005680, symSize: 0x20 }
  - { offsetInCU: 0xC522, offset: 0xC522, size: 0x8, addend: 0x0, symName: __ZNKSt3__117__compressed_pairIPdNS_9allocatorIdEEE6secondB7v160006Ev, symObjAddr: 0x23D0, symBinAddr: 0x1000056A0, symSize: 0x20 }
  - { offsetInCU: 0xC548, offset: 0xC548, size: 0x8, addend: 0x0, symName: __ZNKSt3__122__compressed_pair_elemINS_9allocatorIdEELi1ELb1EE5__getB7v160006Ev, symObjAddr: 0x23F0, symBinAddr: 0x1000056C0, symSize: 0x10 }
  - { offsetInCU: 0xC56E, offset: 0xC56E, size: 0x8, addend: 0x0, symName: __ZNSt3__123__libcpp_numeric_limitsIlLb1EE3maxB7v160006Ev, symObjAddr: 0x2400, symBinAddr: 0x1000056D0, symSize: 0x10 }
  - { offsetInCU: 0xC582, offset: 0xC582, size: 0x8, addend: 0x0, symName: __ZNSt12length_errorC1B7v160006EPKc, symObjAddr: 0x2480, symBinAddr: 0x100005750, symSize: 0x30 }
  - { offsetInCU: 0xC5BA, offset: 0xC5BA, size: 0x8, addend: 0x0, symName: __ZNSt12length_errorC2B7v160006EPKc, symObjAddr: 0x24B0, symBinAddr: 0x100005780, symSize: 0x40 }
  - { offsetInCU: 0xC5F2, offset: 0xC5F2, size: 0x8, addend: 0x0, symName: __ZNSt3__19allocatorIdE8allocateB7v160006Em, symObjAddr: 0x24F0, symBinAddr: 0x1000057C0, symSize: 0x50 }
  - { offsetInCU: 0xC626, offset: 0xC626, size: 0x8, addend: 0x0, symName: __ZNSt3__117__compressed_pairIPdNS_9allocatorIdEEE6secondB7v160006Ev, symObjAddr: 0x25C0, symBinAddr: 0x100005890, symSize: 0x20 }
  - { offsetInCU: 0xC64C, offset: 0xC64C, size: 0x8, addend: 0x0, symName: __ZNSt3__122__compressed_pair_elemINS_9allocatorIdEELi1ELb1EE5__getB7v160006Ev, symObjAddr: 0x25E0, symBinAddr: 0x1000058B0, symSize: 0x10 }
  - { offsetInCU: 0xC672, offset: 0xC672, size: 0x8, addend: 0x0, symName: __ZNSt3__117__compressed_pairIPdNS_9allocatorIdEEE5firstB7v160006Ev, symObjAddr: 0x25F0, symBinAddr: 0x1000058C0, symSize: 0x20 }
  - { offsetInCU: 0xC698, offset: 0xC698, size: 0x8, addend: 0x0, symName: __ZNSt3__122__compressed_pair_elemIPdLi0ELb0EE5__getB7v160006Ev, symObjAddr: 0x2610, symBinAddr: 0x1000058E0, symSize: 0x10 }
  - { offsetInCU: 0xC6BE, offset: 0xC6BE, size: 0x8, addend: 0x0, symName: __ZNKSt3__16vectorIdNS_9allocatorIdEEE31__annotate_contiguous_containerB7v160006EPKvS5_S5_S5_, symObjAddr: 0x2620, symBinAddr: 0x1000058F0, symSize: 0x20 }
  - { offsetInCU: 0xC714, offset: 0xC714, size: 0x8, addend: 0x0, symName: __ZNKSt3__16vectorIdNS_9allocatorIdEEE4dataB7v160006Ev, symObjAddr: 0x2640, symBinAddr: 0x100005910, symSize: 0x20 }
  - { offsetInCU: 0xC73A, offset: 0xC73A, size: 0x8, addend: 0x0, symName: __ZNKSt3__16vectorIdNS_9allocatorIdEEE8capacityB7v160006Ev, symObjAddr: 0x2660, symBinAddr: 0x100005930, symSize: 0x30 }
  - { offsetInCU: 0xC760, offset: 0xC760, size: 0x8, addend: 0x0, symName: __ZNKSt3__16vectorIdNS_9allocatorIdEEE9__end_capB7v160006Ev, symObjAddr: 0x26A0, symBinAddr: 0x100005970, symSize: 0x20 }
  - { offsetInCU: 0xC786, offset: 0xC786, size: 0x8, addend: 0x0, symName: __ZNKSt3__117__compressed_pairIPdNS_9allocatorIdEEE5firstB7v160006Ev, symObjAddr: 0x26C0, symBinAddr: 0x100005990, symSize: 0x20 }
  - { offsetInCU: 0xC7AC, offset: 0xC7AC, size: 0x8, addend: 0x0, symName: __ZNKSt3__122__compressed_pair_elemIPdLi0ELb0EE5__getB7v160006Ev, symObjAddr: 0x26E0, symBinAddr: 0x1000059B0, symSize: 0x10 }
  - { offsetInCU: 0xC7EB, offset: 0xC7EB, size: 0x8, addend: 0x0, symName: __ZNSt3__16vectorIdNS_9allocatorIdEEE21_ConstructTransactionC1B7v160006ERS3_m, symObjAddr: 0x26F0, symBinAddr: 0x1000059C0, symSize: 0x30 }
  - { offsetInCU: 0xC833, offset: 0xC833, size: 0x8, addend: 0x0, symName: __ZNSt3__116allocator_traitsINS_9allocatorIdEEE9constructB7v160006IdJEvEEvRS2_PT_DpOT0_, symObjAddr: 0x2720, symBinAddr: 0x1000059F0, symSize: 0x30 }
  - { offsetInCU: 0xC875, offset: 0xC875, size: 0x8, addend: 0x0, symName: __ZNSt3__16vectorIdNS_9allocatorIdEEE21_ConstructTransactionD1B7v160006Ev, symObjAddr: 0x2750, symBinAddr: 0x100005A20, symSize: 0x20 }
  - { offsetInCU: 0xC89F, offset: 0xC89F, size: 0x8, addend: 0x0, symName: __ZNSt3__16vectorIdNS_9allocatorIdEEE21_ConstructTransactionC2B7v160006ERS3_m, symObjAddr: 0x2770, symBinAddr: 0x100005A40, symSize: 0x40 }
  - { offsetInCU: 0xC8E7, offset: 0xC8E7, size: 0x8, addend: 0x0, symName: __ZNSt3__19allocatorIdE9constructB7v160006IdJEEEvPT_DpOT0_, symObjAddr: 0x27B0, symBinAddr: 0x100005A80, symSize: 0x20 }
  - { offsetInCU: 0xC929, offset: 0xC929, size: 0x8, addend: 0x0, symName: __ZNSt3__16vectorIdNS_9allocatorIdEEE21_ConstructTransactionD2B7v160006Ev, symObjAddr: 0x27D0, symBinAddr: 0x100005AA0, symSize: 0x20 }
  - { offsetInCU: 0xC953, offset: 0xC953, size: 0x8, addend: 0x0, symName: __ZNSt3__128__exception_guard_exceptionsINS_6vectorIdNS_9allocatorIdEEE16__destroy_vectorEED2B7v160006Ev, symObjAddr: 0x27F0, symBinAddr: 0x100005AC0, symSize: 0x40 }
  - { offsetInCU: 0xC97D, offset: 0xC97D, size: 0x8, addend: 0x0, symName: __ZNSt3__16vectorIdNS_9allocatorIdEEE16__destroy_vectorclB7v160006Ev, symObjAddr: 0x2830, symBinAddr: 0x100005B00, symSize: 0x90 }
  - { offsetInCU: 0xC9A3, offset: 0xC9A3, size: 0x8, addend: 0x0, symName: __ZNKSt3__16vectorIdNS_9allocatorIdEEE17__annotate_deleteB7v160006Ev, symObjAddr: 0x28C0, symBinAddr: 0x100005B90, symSize: 0xB0 }
  - { offsetInCU: 0xC9C9, offset: 0xC9C9, size: 0x8, addend: 0x0, symName: __ZNSt3__16vectorIdNS_9allocatorIdEEE7__clearB7v160006Ev, symObjAddr: 0x2980, symBinAddr: 0x100005C50, symSize: 0x20 }
  - { offsetInCU: 0xC9EF, offset: 0xC9EF, size: 0x8, addend: 0x0, symName: __ZNSt3__116allocator_traitsINS_9allocatorIdEEE10deallocateB7v160006ERS2_Pdm, symObjAddr: 0x29A0, symBinAddr: 0x100005C70, symSize: 0x30 }
  - { offsetInCU: 0xCA31, offset: 0xCA31, size: 0x8, addend: 0x0, symName: __ZNKSt3__16vectorIdNS_9allocatorIdEEE4sizeB7v160006Ev, symObjAddr: 0x29D0, symBinAddr: 0x100005CA0, symSize: 0x20 }
  - { offsetInCU: 0xCA57, offset: 0xCA57, size: 0x8, addend: 0x0, symName: __ZNSt3__16vectorIdNS_9allocatorIdEEE22__base_destruct_at_endB7v160006EPd, symObjAddr: 0x29F0, symBinAddr: 0x100005CC0, symSize: 0x80 }
  - { offsetInCU: 0xCA9B, offset: 0xCA9B, size: 0x8, addend: 0x0, symName: __ZNSt3__116allocator_traitsINS_9allocatorIdEEE7destroyB7v160006IdvEEvRS2_PT_, symObjAddr: 0x2A70, symBinAddr: 0x100005D40, symSize: 0x30 }
  - { offsetInCU: 0xCAD8, offset: 0xCAD8, size: 0x8, addend: 0x0, symName: __ZNSt3__19allocatorIdE7destroyB7v160006EPd, symObjAddr: 0x2AA0, symBinAddr: 0x100005D70, symSize: 0x10 }
  - { offsetInCU: 0xCB0C, offset: 0xCB0C, size: 0x8, addend: 0x0, symName: __ZNSt3__19allocatorIdE10deallocateB7v160006EPdm, symObjAddr: 0x2AB0, symBinAddr: 0x100005D80, symSize: 0x40 }
  - { offsetInCU: 0xCB4E, offset: 0xCB4E, size: 0x8, addend: 0x0, symName: __ZNSt3__16vectorIdNS_9allocatorIdEEED2B7v160006Ev, symObjAddr: 0x2B60, symBinAddr: 0x100005E30, symSize: 0x40 }
  - { offsetInCU: 0xCB78, offset: 0xCB78, size: 0x8, addend: 0x0, symName: __ZNSt3__16vectorINS_7complexIdEENS_9allocatorIS2_EEEC2Em, symObjAddr: 0x2BA0, symBinAddr: 0x100005E70, symSize: 0xE0 }
  - { offsetInCU: 0xCBC8, offset: 0xCBC8, size: 0x8, addend: 0x0, symName: __ZNSt3__117__compressed_pairIPNS_7complexIdEENS_9allocatorIS2_EEEC1B7v160006IDnNS_18__default_init_tagEEEOT_OT0_, symObjAddr: 0x2C80, symBinAddr: 0x100005F50, symSize: 0x30 }
  - { offsetInCU: 0xCC20, offset: 0xCC20, size: 0x8, addend: 0x0, symName: __ZNSt3__16vectorINS_7complexIdEENS_9allocatorIS2_EEE16__destroy_vectorC1ERS5_, symObjAddr: 0x2CF0, symBinAddr: 0x100005FC0, symSize: 0x30 }
  - { offsetInCU: 0xCC59, offset: 0xCC59, size: 0x8, addend: 0x0, symName: __ZNSt3__16vectorINS_7complexIdEENS_9allocatorIS2_EEE11__vallocateB7v160006Em, symObjAddr: 0x2D30, symBinAddr: 0x100006000, symSize: 0xA0 }
  - { offsetInCU: 0xCC9D, offset: 0xCC9D, size: 0x8, addend: 0x0, symName: __ZNSt3__16vectorINS_7complexIdEENS_9allocatorIS2_EEE18__construct_at_endEm, symObjAddr: 0x2DD0, symBinAddr: 0x1000060A0, symSize: 0xC0 }
  - { offsetInCU: 0xCD0F, offset: 0xCD0F, size: 0x8, addend: 0x0, symName: __ZNSt3__128__exception_guard_exceptionsINS_6vectorINS_7complexIdEENS_9allocatorIS3_EEE16__destroy_vectorEE10__completeB7v160006Ev, symObjAddr: 0x2E90, symBinAddr: 0x100006160, symSize: 0x20 }
  - { offsetInCU: 0xCD35, offset: 0xCD35, size: 0x8, addend: 0x0, symName: __ZNSt3__128__exception_guard_exceptionsINS_6vectorINS_7complexIdEENS_9allocatorIS3_EEE16__destroy_vectorEED1B7v160006Ev, symObjAddr: 0x2EB0, symBinAddr: 0x100006180, symSize: 0x20 }
  - { offsetInCU: 0xCD5F, offset: 0xCD5F, size: 0x8, addend: 0x0, symName: __ZNSt3__117__compressed_pairIPNS_7complexIdEENS_9allocatorIS2_EEEC2B7v160006IDnNS_18__default_init_tagEEEOT_OT0_, symObjAddr: 0x2ED0, symBinAddr: 0x1000061A0, symSize: 0x40 }
  - { offsetInCU: 0xCDB7, offset: 0xCDB7, size: 0x8, addend: 0x0, symName: __ZNSt3__122__compressed_pair_elemIPNS_7complexIdEELi0ELb0EEC2B7v160006IDnvEEOT_, symObjAddr: 0x2F10, symBinAddr: 0x1000061E0, symSize: 0x20 }
  - { offsetInCU: 0xCDF9, offset: 0xCDF9, size: 0x8, addend: 0x0, symName: __ZNSt3__122__compressed_pair_elemINS_9allocatorINS_7complexIdEEEELi1ELb1EEC2B7v160006ENS_18__default_init_tagE, symObjAddr: 0x2F30, symBinAddr: 0x100006200, symSize: 0x20 }
  - { offsetInCU: 0xCE2E, offset: 0xCE2E, size: 0x8, addend: 0x0, symName: __ZNSt3__19allocatorINS_7complexIdEEEC2B7v160006Ev, symObjAddr: 0x2F50, symBinAddr: 0x100006220, symSize: 0x20 }
  - { offsetInCU: 0xCE58, offset: 0xCE58, size: 0x8, addend: 0x0, symName: __ZNSt3__116__non_trivial_ifILb1ENS_9allocatorINS_7complexIdEEEEEC2B7v160006Ev, symObjAddr: 0x2F70, symBinAddr: 0x100006240, symSize: 0x10 }
  - { offsetInCU: 0xCE82, offset: 0xCE82, size: 0x8, addend: 0x0, symName: __ZNSt3__128__exception_guard_exceptionsINS_6vectorINS_7complexIdEENS_9allocatorIS3_EEE16__destroy_vectorEEC1B7v160006ES7_, symObjAddr: 0x2F80, symBinAddr: 0x100006250, symSize: 0x30 }
  - { offsetInCU: 0xCEBA, offset: 0xCEBA, size: 0x8, addend: 0x0, symName: __ZNSt3__128__exception_guard_exceptionsINS_6vectorINS_7complexIdEENS_9allocatorIS3_EEE16__destroy_vectorEEC2B7v160006ES7_, symObjAddr: 0x2FB0, symBinAddr: 0x100006280, symSize: 0x20 }
  - { offsetInCU: 0xCEF2, offset: 0xCEF2, size: 0x8, addend: 0x0, symName: __ZNSt3__16vectorINS_7complexIdEENS_9allocatorIS2_EEE16__destroy_vectorC2ERS5_, symObjAddr: 0x2FD0, symBinAddr: 0x1000062A0, symSize: 0x20 }
  - { offsetInCU: 0xCF2B, offset: 0xCF2B, size: 0x8, addend: 0x0, symName: __ZNKSt3__16vectorINS_7complexIdEENS_9allocatorIS2_EEE8max_sizeEv, symObjAddr: 0x2FF0, symBinAddr: 0x1000062C0, symSize: 0x60 }
  - { offsetInCU: 0xCF53, offset: 0xCF53, size: 0x8, addend: 0x0, symName: __ZNKSt3__16vectorINS_7complexIdEENS_9allocatorIS2_EEE20__throw_length_errorB7v160006Ev, symObjAddr: 0x3050, symBinAddr: 0x100006320, symSize: 0x20 }
  - { offsetInCU: 0xCF79, offset: 0xCF79, size: 0x8, addend: 0x0, symName: __ZNSt3__16vectorINS_7complexIdEENS_9allocatorIS2_EEE7__allocB7v160006Ev, symObjAddr: 0x30B0, symBinAddr: 0x100006380, symSize: 0x20 }
  - { offsetInCU: 0xCF9F, offset: 0xCF9F, size: 0x8, addend: 0x0, symName: __ZNSt3__16vectorINS_7complexIdEENS_9allocatorIS2_EEE9__end_capB7v160006Ev, symObjAddr: 0x30D0, symBinAddr: 0x1000063A0, symSize: 0x20 }
  - { offsetInCU: 0xCFC5, offset: 0xCFC5, size: 0x8, addend: 0x0, symName: __ZNKSt3__16vectorINS_7complexIdEENS_9allocatorIS2_EEE14__annotate_newB7v160006Em, symObjAddr: 0x30F0, symBinAddr: 0x1000063C0, symSize: 0xB0 }
  - { offsetInCU: 0xD004, offset: 0xD004, size: 0x8, addend: 0x0, symName: __ZNSt3__116allocator_traitsINS_9allocatorINS_7complexIdEEEEE8max_sizeB7v160006IS4_vEEmRKS4_, symObjAddr: 0x31A0, symBinAddr: 0x100006470, symSize: 0x20 }
  - { offsetInCU: 0xD032, offset: 0xD032, size: 0x8, addend: 0x0, symName: __ZNKSt3__16vectorINS_7complexIdEENS_9allocatorIS2_EEE7__allocB7v160006Ev, symObjAddr: 0x31C0, symBinAddr: 0x100006490, symSize: 0x20 }
  - { offsetInCU: 0xD058, offset: 0xD058, size: 0x8, addend: 0x0, symName: __ZNKSt3__19allocatorINS_7complexIdEEE8max_sizeB7v160006Ev, symObjAddr: 0x31E0, symBinAddr: 0x1000064B0, symSize: 0x20 }
  - { offsetInCU: 0xD07E, offset: 0xD07E, size: 0x8, addend: 0x0, symName: __ZNKSt3__117__compressed_pairIPNS_7complexIdEENS_9allocatorIS2_EEE6secondB7v160006Ev, symObjAddr: 0x3200, symBinAddr: 0x1000064D0, symSize: 0x20 }
  - { offsetInCU: 0xD0A4, offset: 0xD0A4, size: 0x8, addend: 0x0, symName: __ZNKSt3__122__compressed_pair_elemINS_9allocatorINS_7complexIdEEEELi1ELb1EE5__getB7v160006Ev, symObjAddr: 0x3220, symBinAddr: 0x1000064F0, symSize: 0x10 }
  - { offsetInCU: 0xD0CA, offset: 0xD0CA, size: 0x8, addend: 0x0, symName: __ZNSt3__19allocatorINS_7complexIdEEE8allocateB7v160006Em, symObjAddr: 0x3230, symBinAddr: 0x100006500, symSize: 0x50 }
  - { offsetInCU: 0xD0FE, offset: 0xD0FE, size: 0x8, addend: 0x0, symName: __ZNSt3__117__compressed_pairIPNS_7complexIdEENS_9allocatorIS2_EEE6secondB7v160006Ev, symObjAddr: 0x3280, symBinAddr: 0x100006550, symSize: 0x20 }
  - { offsetInCU: 0xD124, offset: 0xD124, size: 0x8, addend: 0x0, symName: __ZNSt3__122__compressed_pair_elemINS_9allocatorINS_7complexIdEEEELi1ELb1EE5__getB7v160006Ev, symObjAddr: 0x32A0, symBinAddr: 0x100006570, symSize: 0x10 }
  - { offsetInCU: 0xD14A, offset: 0xD14A, size: 0x8, addend: 0x0, symName: __ZNSt3__117__compressed_pairIPNS_7complexIdEENS_9allocatorIS2_EEE5firstB7v160006Ev, symObjAddr: 0x32B0, symBinAddr: 0x100006580, symSize: 0x20 }
  - { offsetInCU: 0xD170, offset: 0xD170, size: 0x8, addend: 0x0, symName: __ZNSt3__122__compressed_pair_elemIPNS_7complexIdEELi0ELb0EE5__getB7v160006Ev, symObjAddr: 0x32D0, symBinAddr: 0x1000065A0, symSize: 0x10 }
  - { offsetInCU: 0xD196, offset: 0xD196, size: 0x8, addend: 0x0, symName: __ZNKSt3__16vectorINS_7complexIdEENS_9allocatorIS2_EEE31__annotate_contiguous_containerB7v160006EPKvS7_S7_S7_, symObjAddr: 0x32E0, symBinAddr: 0x1000065B0, symSize: 0x20 }
  - { offsetInCU: 0xD1EC, offset: 0xD1EC, size: 0x8, addend: 0x0, symName: __ZNKSt3__16vectorINS_7complexIdEENS_9allocatorIS2_EEE4dataB7v160006Ev, symObjAddr: 0x3300, symBinAddr: 0x1000065D0, symSize: 0x20 }
  - { offsetInCU: 0xD212, offset: 0xD212, size: 0x8, addend: 0x0, symName: __ZNKSt3__16vectorINS_7complexIdEENS_9allocatorIS2_EEE8capacityB7v160006Ev, symObjAddr: 0x3320, symBinAddr: 0x1000065F0, symSize: 0x30 }
  - { offsetInCU: 0xD238, offset: 0xD238, size: 0x8, addend: 0x0, symName: __ZNKSt3__16vectorINS_7complexIdEENS_9allocatorIS2_EEE9__end_capB7v160006Ev, symObjAddr: 0x3360, symBinAddr: 0x100006630, symSize: 0x20 }
  - { offsetInCU: 0xD25E, offset: 0xD25E, size: 0x8, addend: 0x0, symName: __ZNKSt3__117__compressed_pairIPNS_7complexIdEENS_9allocatorIS2_EEE5firstB7v160006Ev, symObjAddr: 0x3380, symBinAddr: 0x100006650, symSize: 0x20 }
  - { offsetInCU: 0xD284, offset: 0xD284, size: 0x8, addend: 0x0, symName: __ZNKSt3__122__compressed_pair_elemIPNS_7complexIdEELi0ELb0EE5__getB7v160006Ev, symObjAddr: 0x33A0, symBinAddr: 0x100006670, symSize: 0x10 }
  - { offsetInCU: 0xD2C3, offset: 0xD2C3, size: 0x8, addend: 0x0, symName: __ZNSt3__16vectorINS_7complexIdEENS_9allocatorIS2_EEE21_ConstructTransactionC1B7v160006ERS5_m, symObjAddr: 0x33B0, symBinAddr: 0x100006680, symSize: 0x30 }
  - { offsetInCU: 0xD30B, offset: 0xD30B, size: 0x8, addend: 0x0, symName: __ZNSt3__116allocator_traitsINS_9allocatorINS_7complexIdEEEEE9constructB7v160006IS3_JEvEEvRS4_PT_DpOT0_, symObjAddr: 0x33E0, symBinAddr: 0x1000066B0, symSize: 0x30 }
  - { offsetInCU: 0xD34D, offset: 0xD34D, size: 0x8, addend: 0x0, symName: __ZNSt3__16vectorINS_7complexIdEENS_9allocatorIS2_EEE21_ConstructTransactionD1B7v160006Ev, symObjAddr: 0x3410, symBinAddr: 0x1000066E0, symSize: 0x20 }
  - { offsetInCU: 0xD377, offset: 0xD377, size: 0x8, addend: 0x0, symName: __ZNSt3__16vectorINS_7complexIdEENS_9allocatorIS2_EEE21_ConstructTransactionC2B7v160006ERS5_m, symObjAddr: 0x3430, symBinAddr: 0x100006700, symSize: 0x40 }
  - { offsetInCU: 0xD3BF, offset: 0xD3BF, size: 0x8, addend: 0x0, symName: __ZNSt3__19allocatorINS_7complexIdEEE9constructB7v160006IS2_JEEEvPT_DpOT0_, symObjAddr: 0x3470, symBinAddr: 0x100006740, symSize: 0x30 }
  - { offsetInCU: 0xD401, offset: 0xD401, size: 0x8, addend: 0x0, symName: __ZNSt3__16vectorINS_7complexIdEENS_9allocatorIS2_EEE21_ConstructTransactionD2B7v160006Ev, symObjAddr: 0x34A0, symBinAddr: 0x100006770, symSize: 0x20 }
  - { offsetInCU: 0xD42B, offset: 0xD42B, size: 0x8, addend: 0x0, symName: __ZNSt3__128__exception_guard_exceptionsINS_6vectorINS_7complexIdEENS_9allocatorIS3_EEE16__destroy_vectorEED2B7v160006Ev, symObjAddr: 0x34C0, symBinAddr: 0x100006790, symSize: 0x40 }
  - { offsetInCU: 0xD455, offset: 0xD455, size: 0x8, addend: 0x0, symName: __ZNSt3__16vectorINS_7complexIdEENS_9allocatorIS2_EEE16__destroy_vectorclB7v160006Ev, symObjAddr: 0x3500, symBinAddr: 0x1000067D0, symSize: 0x90 }
  - { offsetInCU: 0xD47B, offset: 0xD47B, size: 0x8, addend: 0x0, symName: __ZNKSt3__16vectorINS_7complexIdEENS_9allocatorIS2_EEE17__annotate_deleteB7v160006Ev, symObjAddr: 0x3590, symBinAddr: 0x100006860, symSize: 0xB0 }
  - { offsetInCU: 0xD4A1, offset: 0xD4A1, size: 0x8, addend: 0x0, symName: __ZNSt3__16vectorINS_7complexIdEENS_9allocatorIS2_EEE7__clearB7v160006Ev, symObjAddr: 0x3650, symBinAddr: 0x100006920, symSize: 0x20 }
  - { offsetInCU: 0xD4C7, offset: 0xD4C7, size: 0x8, addend: 0x0, symName: __ZNSt3__116allocator_traitsINS_9allocatorINS_7complexIdEEEEE10deallocateB7v160006ERS4_PS3_m, symObjAddr: 0x3670, symBinAddr: 0x100006940, symSize: 0x30 }
  - { offsetInCU: 0xD509, offset: 0xD509, size: 0x8, addend: 0x0, symName: __ZNKSt3__16vectorINS_7complexIdEENS_9allocatorIS2_EEE4sizeB7v160006Ev, symObjAddr: 0x36A0, symBinAddr: 0x100006970, symSize: 0x20 }
  - { offsetInCU: 0xD52F, offset: 0xD52F, size: 0x8, addend: 0x0, symName: __ZNSt3__16vectorINS_7complexIdEENS_9allocatorIS2_EEE22__base_destruct_at_endB7v160006EPS2_, symObjAddr: 0x36C0, symBinAddr: 0x100006990, symSize: 0x80 }
  - { offsetInCU: 0xD573, offset: 0xD573, size: 0x8, addend: 0x0, symName: __ZNSt3__116allocator_traitsINS_9allocatorINS_7complexIdEEEEE7destroyB7v160006IS3_vEEvRS4_PT_, symObjAddr: 0x3740, symBinAddr: 0x100006A10, symSize: 0x30 }
  - { offsetInCU: 0xD5B0, offset: 0xD5B0, size: 0x8, addend: 0x0, symName: __ZNSt3__19allocatorINS_7complexIdEEE7destroyB7v160006EPS2_, symObjAddr: 0x3770, symBinAddr: 0x100006A40, symSize: 0x10 }
  - { offsetInCU: 0xD5E4, offset: 0xD5E4, size: 0x8, addend: 0x0, symName: __ZNSt3__19allocatorINS_7complexIdEEE10deallocateB7v160006EPS2_m, symObjAddr: 0x3780, symBinAddr: 0x100006A50, symSize: 0x40 }
  - { offsetInCU: 0xD626, offset: 0xD626, size: 0x8, addend: 0x0, symName: __ZNSt3__16vectorINS_7complexIdEENS_9allocatorIS2_EEED2B7v160006Ev, symObjAddr: 0x37C0, symBinAddr: 0x100006A90, symSize: 0x40 }
  - { offsetInCU: 0xD650, offset: 0xD650, size: 0x8, addend: 0x0, symName: __ZNKSt3__17complexIdE4imagB7v160006Ev, symObjAddr: 0x3800, symBinAddr: 0x100006AD0, symSize: 0x20 }
  - { offsetInCU: 0xD676, offset: 0xD676, size: 0x8, addend: 0x0, symName: __ZNSt3__17complexIdEmLB7v160006Ed, symObjAddr: 0x3820, symBinAddr: 0x100006AF0, symSize: 0x30 }
  - { offsetInCU: 0xD6AB, offset: 0xD6AB, size: 0x8, addend: 0x0, symName: __ZNSt3__16vectorINS_7complexIdEENS_9allocatorIS2_EEE13__move_assignERS5_NS_17integral_constantIbLb1EEE, symObjAddr: 0x3920, symBinAddr: 0x100006BF0, symSize: 0xB0 }
  - { offsetInCU: 0xD6EE, offset: 0xD6EE, size: 0x8, addend: 0x0, symName: __ZNSt3__16vectorINS_7complexIdEENS_9allocatorIS2_EEE13__vdeallocateEv, symObjAddr: 0x39D0, symBinAddr: 0x100006CA0, symSize: 0x80 }
  - { offsetInCU: 0xD716, offset: 0xD716, size: 0x8, addend: 0x0, symName: __ZNSt3__16vectorINS_7complexIdEENS_9allocatorIS2_EEE19__move_assign_allocB7v160006ERS5_, symObjAddr: 0x3A50, symBinAddr: 0x100006D20, symSize: 0x30 }
  - { offsetInCU: 0xD74B, offset: 0xD74B, size: 0x8, addend: 0x0, symName: __ZNSt3__16vectorINS_7complexIdEENS_9allocatorIS2_EEE5clearB7v160006Ev, symObjAddr: 0x3A90, symBinAddr: 0x100006D60, symSize: 0x50 }
  - { offsetInCU: 0xD780, offset: 0xD780, size: 0x8, addend: 0x0, symName: __ZNKSt3__16vectorINS_7complexIdEENS_9allocatorIS2_EEE17__annotate_shrinkB7v160006Em, symObjAddr: 0x3AE0, symBinAddr: 0x100006DB0, symSize: 0xA0 }
  - { offsetInCU: 0xD7B5, offset: 0xD7B5, size: 0x8, addend: 0x0, symName: __ZNSt3__16vectorINS_7complexIdEENS_9allocatorIS2_EEE19__move_assign_allocB7v160006ERS5_NS_17integral_constantIbLb1EEE, symObjAddr: 0x3B90, symBinAddr: 0x100006E60, symSize: 0x30 }
  - { offsetInCU: 0xD7F6, offset: 0xD7F6, size: 0x8, addend: 0x0, symName: __ZNSt3__19basic_iosIcNS_11char_traitsIcEEEC2B7v160006Ev, symObjAddr: 0x3BC0, symBinAddr: 0x100006E90, symSize: 0x40 }
  - { offsetInCU: 0xD820, offset: 0xD820, size: 0x8, addend: 0x0, symName: __ZNSt3__113basic_ostreamIcNS_11char_traitsIcEEEC2B7v160006EPNS_15basic_streambufIcS2_EE, symObjAddr: 0x3C00, symBinAddr: 0x100006ED0, symSize: 0x50 }
  - { offsetInCU: 0xD865, offset: 0xD865, size: 0x8, addend: 0x0, symName: __ZNSt3__19basic_iosIcNS_11char_traitsIcEEE8setstateB7v160006Ej, symObjAddr: 0x3C50, symBinAddr: 0x100006F20, symSize: 0x30 }
  - { offsetInCU: 0xD89A, offset: 0xD89A, size: 0x8, addend: 0x0, symName: __ZNSt3__18ios_baseC2B7v160006Ev, symObjAddr: 0x3C80, symBinAddr: 0x100006F50, symSize: 0x20 }
  - { offsetInCU: 0xD8C4, offset: 0xD8C4, size: 0x8, addend: 0x0, symName: __ZNSt3__19basic_iosIcNS_11char_traitsIcEEE4initB7v160006EPNS_15basic_streambufIcS2_EE, symObjAddr: 0x3CA0, symBinAddr: 0x100006F70, symSize: 0x50 }
  - { offsetInCU: 0xD8FB, offset: 0xD8FB, size: 0x8, addend: 0x0, symName: __ZNSt3__111char_traitsIcE3eofEv, symObjAddr: 0x3CF0, symBinAddr: 0x100006FC0, symSize: 0x10 }
  - { offsetInCU: 0xD90F, offset: 0xD90F, size: 0x8, addend: 0x0, symName: __ZNSt3__18ios_base8setstateB7v160006Ej, symObjAddr: 0x3D00, symBinAddr: 0x100006FD0, symSize: 0x30 }
  - { offsetInCU: 0xD946, offset: 0xD946, size: 0x8, addend: 0x0, symName: __ZNSt3__111char_traitsIcE6lengthEPKc, symObjAddr: 0x3F20, symBinAddr: 0x1000071F0, symSize: 0x30 }
  - { offsetInCU: 0xD987, offset: 0xD987, size: 0x8, addend: 0x0, symName: __ZNKSt3__113basic_ostreamIcNS_11char_traitsIcEEE6sentrycvbB7v160006Ev, symObjAddr: 0x3F50, symBinAddr: 0x100007220, symSize: 0x20 }
  - { offsetInCU: 0xD9AD, offset: 0xD9AD, size: 0x8, addend: 0x0, symName: __ZNSt3__119ostreambuf_iteratorIcNS_11char_traitsIcEEEC1B7v160006ERNS_13basic_ostreamIcS2_EE, symObjAddr: 0x4190, symBinAddr: 0x100007460, symSize: 0x30 }
  - { offsetInCU: 0xD9E5, offset: 0xD9E5, size: 0x8, addend: 0x0, symName: __ZNKSt3__18ios_base5flagsB7v160006Ev, symObjAddr: 0x41C0, symBinAddr: 0x100007490, symSize: 0x20 }
  - { offsetInCU: 0xDA0D, offset: 0xDA0D, size: 0x8, addend: 0x0, symName: __ZNKSt3__19basic_iosIcNS_11char_traitsIcEEE4fillB7v160006Ev, symObjAddr: 0x41E0, symBinAddr: 0x1000074B0, symSize: 0x70 }
  - { offsetInCU: 0xDA35, offset: 0xDA35, size: 0x8, addend: 0x0, symName: __ZNKSt3__119ostreambuf_iteratorIcNS_11char_traitsIcEEE6failedB7v160006Ev, symObjAddr: 0x4250, symBinAddr: 0x100007520, symSize: 0x20 }
  - { offsetInCU: 0xDA5B, offset: 0xDA5B, size: 0x8, addend: 0x0, symName: __ZNKSt3__18ios_base5widthB7v160006Ev, symObjAddr: 0x4270, symBinAddr: 0x100007540, symSize: 0x20 }
  - { offsetInCU: 0xDA83, offset: 0xDA83, size: 0x8, addend: 0x0, symName: __ZNSt3__115basic_streambufIcNS_11char_traitsIcEEE5sputnB7v160006EPKcl, symObjAddr: 0x4290, symBinAddr: 0x100007560, symSize: 0x30 }
  - { offsetInCU: 0xDAC5, offset: 0xDAC5, size: 0x8, addend: 0x0, symName: __ZNSt3__112basic_stringIcNS_11char_traitsIcEENS_9allocatorIcEEEC1B7v160006Emc, symObjAddr: 0x42C0, symBinAddr: 0x100007590, symSize: 0x30 }
  - { offsetInCU: 0xDB0D, offset: 0xDB0D, size: 0x8, addend: 0x0, symName: __ZNKSt3__112basic_stringIcNS_11char_traitsIcEENS_9allocatorIcEEE4dataB7v160006Ev, symObjAddr: 0x42F0, symBinAddr: 0x1000075C0, symSize: 0x30 }
  - { offsetInCU: 0xDB33, offset: 0xDB33, size: 0x8, addend: 0x0, symName: __ZNSt3__18ios_base5widthB7v160006El, symObjAddr: 0x4320, symBinAddr: 0x1000075F0, symSize: 0x30 }
  - { offsetInCU: 0xDB79, offset: 0xDB79, size: 0x8, addend: 0x0, symName: __ZNSt3__112basic_stringIcNS_11char_traitsIcEENS_9allocatorIcEEEC2B7v160006Emc, symObjAddr: 0x4350, symBinAddr: 0x100007620, symSize: 0x50 }
  - { offsetInCU: 0xDBC1, offset: 0xDBC1, size: 0x8, addend: 0x0, symName: __ZNSt3__117__compressed_pairINS_12basic_stringIcNS_11char_traitsIcEENS_9allocatorIcEEE5__repES5_EC1B7v160006INS_18__default_init_tagESA_EEOT_OT0_, symObjAddr: 0x43A0, symBinAddr: 0x100007670, symSize: 0x30 }
  - { offsetInCU: 0xDC19, offset: 0xDC19, size: 0x8, addend: 0x0, symName: __ZNSt3__117__compressed_pairINS_12basic_stringIcNS_11char_traitsIcEENS_9allocatorIcEEE5__repES5_EC2B7v160006INS_18__default_init_tagESA_EEOT_OT0_, symObjAddr: 0x43E0, symBinAddr: 0x1000076B0, symSize: 0x30 }
  - { offsetInCU: 0xDC71, offset: 0xDC71, size: 0x8, addend: 0x0, symName: __ZNSt3__122__compressed_pair_elemINS_12basic_stringIcNS_11char_traitsIcEENS_9allocatorIcEEE5__repELi0ELb0EEC2B7v160006ENS_18__default_init_tagE, symObjAddr: 0x4410, symBinAddr: 0x1000076E0, symSize: 0x10 }
  - { offsetInCU: 0xDCA6, offset: 0xDCA6, size: 0x8, addend: 0x0, symName: __ZNSt3__122__compressed_pair_elemINS_9allocatorIcEELi1ELb1EEC2B7v160006ENS_18__default_init_tagE, symObjAddr: 0x4420, symBinAddr: 0x1000076F0, symSize: 0x20 }
  - { offsetInCU: 0xDCDB, offset: 0xDCDB, size: 0x8, addend: 0x0, symName: __ZNSt3__19allocatorIcEC2B7v160006Ev, symObjAddr: 0x4440, symBinAddr: 0x100007710, symSize: 0x20 }
  - { offsetInCU: 0xDD05, offset: 0xDD05, size: 0x8, addend: 0x0, symName: __ZNSt3__116__non_trivial_ifILb1ENS_9allocatorIcEEEC2B7v160006Ev, symObjAddr: 0x4460, symBinAddr: 0x100007730, symSize: 0x10 }
  - { offsetInCU: 0xDD2F, offset: 0xDD2F, size: 0x8, addend: 0x0, symName: __ZNKSt3__112basic_stringIcNS_11char_traitsIcEENS_9allocatorIcEEE13__get_pointerB7v160006Ev, symObjAddr: 0x4480, symBinAddr: 0x100007750, symSize: 0x50 }
  - { offsetInCU: 0xDD55, offset: 0xDD55, size: 0x8, addend: 0x0, symName: __ZNKSt3__112basic_stringIcNS_11char_traitsIcEENS_9allocatorIcEEE9__is_longB7v160006Ev, symObjAddr: 0x44D0, symBinAddr: 0x1000077A0, symSize: 0x30 }
  - { offsetInCU: 0xDD7B, offset: 0xDD7B, size: 0x8, addend: 0x0, symName: __ZNKSt3__112basic_stringIcNS_11char_traitsIcEENS_9allocatorIcEEE18__get_long_pointerB7v160006Ev, symObjAddr: 0x4500, symBinAddr: 0x1000077D0, symSize: 0x20 }
  - { offsetInCU: 0xDDA1, offset: 0xDDA1, size: 0x8, addend: 0x0, symName: __ZNKSt3__112basic_stringIcNS_11char_traitsIcEENS_9allocatorIcEEE19__get_short_pointerB7v160006Ev, symObjAddr: 0x4520, symBinAddr: 0x1000077F0, symSize: 0x30 }
  - { offsetInCU: 0xDDC7, offset: 0xDDC7, size: 0x8, addend: 0x0, symName: __ZNKSt3__117__compressed_pairINS_12basic_stringIcNS_11char_traitsIcEENS_9allocatorIcEEE5__repES5_E5firstB7v160006Ev, symObjAddr: 0x4550, symBinAddr: 0x100007820, symSize: 0x20 }
  - { offsetInCU: 0xDDED, offset: 0xDDED, size: 0x8, addend: 0x0, symName: __ZNKSt3__122__compressed_pair_elemINS_12basic_stringIcNS_11char_traitsIcEENS_9allocatorIcEEE5__repELi0ELb0EE5__getB7v160006Ev, symObjAddr: 0x4570, symBinAddr: 0x100007840, symSize: 0x10 }
  - { offsetInCU: 0xDE13, offset: 0xDE13, size: 0x8, addend: 0x0, symName: __ZNSt3__114pointer_traitsIPKcE10pointer_toB7v160006ERS1_, symObjAddr: 0x4580, symBinAddr: 0x100007850, symSize: 0x10 }
  - { offsetInCU: 0xDE36, offset: 0xDE36, size: 0x8, addend: 0x0, symName: __ZNSt3__119ostreambuf_iteratorIcNS_11char_traitsIcEEEC2B7v160006ERNS_13basic_ostreamIcS2_EE, symObjAddr: 0x4590, symBinAddr: 0x100007860, symSize: 0x50 }
  - { offsetInCU: 0xDE6E, offset: 0xDE6E, size: 0x8, addend: 0x0, symName: __ZNKSt3__19basic_iosIcNS_11char_traitsIcEEE5rdbufB7v160006Ev, symObjAddr: 0x45E0, symBinAddr: 0x1000078B0, symSize: 0x20 }
  - { offsetInCU: 0xDE96, offset: 0xDE96, size: 0x8, addend: 0x0, symName: __ZNKSt3__18ios_base5rdbufB7v160006Ev, symObjAddr: 0x4600, symBinAddr: 0x1000078D0, symSize: 0x20 }
  - { offsetInCU: 0xDEBC, offset: 0xDEBC, size: 0x8, addend: 0x0, symName: __ZNSt3__111char_traitsIcE11eq_int_typeEii, symObjAddr: 0x4620, symBinAddr: 0x1000078F0, symSize: 0x20 }
  - { offsetInCU: 0xDEED, offset: 0xDEED, size: 0x8, addend: 0x0, symName: __ZNKSt3__19basic_iosIcNS_11char_traitsIcEEE5widenB7v160006Ec, symObjAddr: 0x4640, symBinAddr: 0x100007910, symSize: 0x80 }
  - { offsetInCU: 0xDF5B, offset: 0xDF5B, size: 0x8, addend: 0x0, symName: __ZNKSt3__15ctypeIcE5widenB7v160006Ec, symObjAddr: 0x46F0, symBinAddr: 0x1000079C0, symSize: 0x30 }
...
